Certificate:
    Data:
        Version: 3 (0x2)
        Serial Number: 4096 (0x1000)
    Signature Algorithm: sha256WithRSAEncryption
        Issuer: C=FR, ST=IDF, L=Paris, O=Local NODE-OPCUA Certificate Authority, CN=NodeOPCUA-CA
        Validity
            Not Before: May 16 11:53:10 2017 GMT
            Not After : May 16 11:53:10 2018 GMT
        Subject: C=FR, O=NodeOPCUA, CN=NodeOPCUA
        Subject Public Key Info:
            Public Key Algorithm: rsaEncryption
                Public-Key: (1024 bit)
                Modulus:
                    00:aa:b9:3c:2d:58:d9:6b:32:03:74:e3:56:3a:86:
                    7c:6b:4b:64:2d:de:c9:2b:c3:d7:b4:e1:87:68:c8:
                    52:33:c5:55:4e:8a:ef:8b:39:90:73:0d:55:6b:e9:
                    2a:99:42:55:9b:1f:4e:47:cc:60:47:aa:04:db:8b:
                    0e:c4:05:1a:02:e7:47:6a:bd:8a:0b:5e:dd:bc:fb:
                    01:2a:ab:40:f9:a5:19:43:28:89:66:15:aa:40:cc:
                    59:2d:67:5d:51:e1:11:89:af:2f:b2:9f:4f:70:d9:
                    7a:06:f9:56:d0:98:24:21:4d:23:65:ad:61:5f:7c:
                    3a:dd:d9:f2:1e:70:98:28:c9
                Exponent: 65537 (0x10001)
        X509v3 extensions:
            X509v3 Basic Constraints: critical
                CA:FALSE
            X509v3 Subject Key Identifier: 
                06:89:7B:6A:96:8F:45:0A:CA:F1:56:B1:B8:A8:97:21:EC:DA:78:F7
            X509v3 Authority Key Identifier: 
                keyid:62:1D:0F:2B:99:F3:81:27:18:EB:32:A8:E7:56:3B:59:0F:A2:3C:EC
                DirName:/C=FR/ST=IDF/L=Paris/O=Local NODE-OPCUA Certificate Authority/CN=NodeOPCUA-CA
                serial:9B:E7:E8:F9:8D:80:14:28

            X509v3 Subject Alternative Name: 
                URI:urn:ASE044-LT.INTRA.TUT.FI:NodeOPCUA-Client, DNS:localhost, DNS:ASE044-LT.INTRA.TUT.FI
            Netscape Comment: 
                OpenSSL Generated Certificate
            X509v3 Key Usage: critical
                Digital Signature, Non Repudiation, Key Encipherment, Data Encipherment, Key Agreement, Certificate Sign
            X509v3 Extended Key Usage: critical
                TLS Web Server Authentication, TLS Web Client Authentication
    Signature Algorithm: sha256WithRSAEncryption
         60:ca:9d:0a:f3:3f:57:f2:db:57:55:47:ba:0a:64:82:87:78:
         4b:50:a7:ad:2d:37:1d:20:f1:46:65:23:4e:8a:80:f8:40:03:
         d8:b7:a6:d4:ef:36:e7:85:50:ad:ee:49:39:73:f2:f5:c2:f9:
         cf:54:88:76:8c:d6:5b:fc:18:7e:14:08:eb:ea:18:3c:0b:71:
         c9:62:0e:c1:79:eb:b0:11:a1:d1:7e:c9:a3:b9:a1:56:2d:d9:
         02:8a:5d:f3:2e:a3:c2:dd:91:86:a4:9b:be:1c:a2:b8:c7:6e:
         32:f3:c8:c5:47:3a:81:62:a8:27:af:43:59:35:c4:3f:47:ef:
         a6:d3:3a:19:47:63:f6:f5:b9:d2:8e:51:53:1c:59:17:ec:71:
         72:51:19:75:5d:04:28:da:b0:8a:fb:f3:50:ef:79:bf:e0:f4:
         36:74:43:c0:be:dd:f9:ff:c0:d2:e5:f6:ab:f2:18:c4:77:11:
         d9:d3:92:1e:b5:ed:9f:64:d2:25:f1:c4:f9:7f:e8:28:eb:2a:
         77:24:b6:81:c1:09:a8:17:9c:b1:92:06:a6:7a:c9:58:cb:40:
         8f:a9:c6:dd:a6:86:5b:c0:8c:04:ea:09:32:4d:0e:8c:fa:c5:
         9d:39:82:d0:66:97:fc:12:6b:f2:43:52:e4:52:1e:f2:58:09:
         38:4f:14:8b
-----BEGIN CERTIFICATE-----
MIIEOjCCAyKgAwIBAgICEAAwDQYJKoZIhvcNAQELBQAwczELMAkGA1UEBhMCRlIx
DDAKBgNVBAgTA0lERjEOMAwGA1UEBxMFUGFyaXMxLzAtBgNVBAoTJkxvY2FsIE5P
REUtT1BDVUEgQ2VydGlmaWNhdGUgQXV0aG9yaXR5MRUwEwYDVQQDEwxOb2RlT1BD
VUEtQ0EwIhgPMjAxNzA1MTYxMTUzMTBaGA8yMDE4MDUxNjExNTMxMFowNTELMAkG
A1UEBhMCRlIxEjAQBgNVBAoMCU5vZGVPUENVQTESMBAGA1UEAwwJTm9kZU9QQ1VB
MIGfMA0GCSqGSIb3DQEBAQUAA4GNADCBiQKBgQCquTwtWNlrMgN041Y6hnxrS2Qt
3skrw9e04YdoyFIzxVVOiu+LOZBzDVVr6SqZQlWbH05HzGBHqgTbiw7EBRoC50dq
vYoLXt28+wEqq0D5pRlDKIlmFapAzFktZ11R4RGJry+yn09w2XoG+VbQmCQhTSNl
rWFffDrd2fIecJgoyQIDAQABo4IBlDCCAZAwDAYDVR0TAQH/BAIwADAdBgNVHQ4E
FgQUBol7apaPRQrK8VaxuKiXIezaePcwgaUGA1UdIwSBnTCBmoAUYh0PK5nzgScY
6zKo51Y7WQ+iPOyhd6R1MHMxCzAJBgNVBAYTAkZSMQwwCgYDVQQIEwNJREYxDjAM
BgNVBAcTBVBhcmlzMS8wLQYDVQQKEyZMb2NhbCBOT0RFLU9QQ1VBIENlcnRpZmlj
YXRlIEF1dGhvcml0eTEVMBMGA1UEAxMMTm9kZU9QQ1VBLUNBggkAm+fo+Y2AFCgw
WQYDVR0RBFIwUIYrdXJuOkFTRTA0NC1MVC5JTlRSQS5UVVQuRkk6Tm9kZU9QQ1VB
LUNsaWVudIIJbG9jYWxob3N0ghZBU0UwNDQtTFQuSU5UUkEuVFVULkZJMCwGCWCG
SAGG+EIBDQQfFh1PcGVuU1NMIEdlbmVyYXRlZCBDZXJ0aWZpY2F0ZTAOBgNVHQ8B
Af8EBAMCAvwwIAYDVR0lAQH/BBYwFAYIKwYBBQUHAwEGCCsGAQUFBwMCMA0GCSqG
SIb3DQEBCwUAA4IBAQBgyp0K8z9X8ttXVUe6CmSCh3hLUKetLTcdIPFGZSNOioD4
QAPYt6bU7zbnhVCt7kk5c/L1wvnPVIh2jNZb/Bh+FAjr6hg8C3HJYg7BeeuwEaHR
fsmjuaFWLdkCil3zLqPC3ZGGpJu+HKK4x24y88jFRzqBYqgnr0NZNcQ/R++m0zoZ
R2P29bnSjlFTHFkX7HFyURl1XQQo2rCK+/NQ73m/4PQ2dEPAvt35/8DS5far8hjE
dxHZ05Iete2fZNIl8cT5f+go6yp3JLaBwQmoF5yxkgameslYy0CPqcbdpoZbwIwE
6gkyTQ6M+sWdOYLQZpf8EmvyQ1LkUh7yWAk4TxSL
-----END CERTIFICATE-----
