Certificate:
    Data:
        Version: 3 (0x2)
        Serial Number: 4097 (0x1001)
    Signature Algorithm: sha256WithRSAEncryption
        Issuer: O=NodeOPCUA, CN=NodeOPCUA
        Validity
            Not Before: May 16 11:53:10 2017 GMT
            Not After : May 16 11:53:10 2018 GMT
        Subject: O=NodeOPCUA, CN=NodeOPCUA
        Subject Public Key Info:
            Public Key Algorithm: rsaEncryption
                Public-Key: (1024 bit)
                Modulus:
                    00:aa:b9:3c:2d:58:d9:6b:32:03:74:e3:56:3a:86:
                    7c:6b:4b:64:2d:de:c9:2b:c3:d7:b4:e1:87:68:c8:
                    52:33:c5:55:4e:8a:ef:8b:39:90:73:0d:55:6b:e9:
                    2a:99:42:55:9b:1f:4e:47:cc:60:47:aa:04:db:8b:
                    0e:c4:05:1a:02:e7:47:6a:bd:8a:0b:5e:dd:bc:fb:
                    01:2a:ab:40:f9:a5:19:43:28:89:66:15:aa:40:cc:
                    59:2d:67:5d:51:e1:11:89:af:2f:b2:9f:4f:70:d9:
                    7a:06:f9:56:d0:98:24:21:4d:23:65:ad:61:5f:7c:
                    3a:dd:d9:f2:1e:70:98:28:c9
                Exponent: 65537 (0x10001)
        X509v3 extensions:
            X509v3 Basic Constraints: critical
                CA:FALSE
            X509v3 Subject Key Identifier: 
                06:89:7B:6A:96:8F:45:0A:CA:F1:56:B1:B8:A8:97:21:EC:DA:78:F7
            X509v3 Authority Key Identifier: 
                keyid:06:89:7B:6A:96:8F:45:0A:CA:F1:56:B1:B8:A8:97:21:EC:DA:78:F7
                DirName:/O=NodeOPCUA/CN=NodeOPCUA
                serial:10:01

            X509v3 Subject Alternative Name: 
                URI:urn:ASE044-LT.INTRA.TUT.FI:NodeOPCUA-Client, DNS:localhost, DNS:ASE044-LT.INTRA.TUT.FI
            Netscape Comment: 
                OpenSSL Generated Certificate
            X509v3 Key Usage: critical
                Digital Signature, Non Repudiation, Key Encipherment, Data Encipherment, Key Agreement, Certificate Sign
            X509v3 Extended Key Usage: critical
                TLS Web Server Authentication, TLS Web Client Authentication
    Signature Algorithm: sha256WithRSAEncryption
         51:f1:fb:70:81:66:85:19:c6:bf:90:2a:4e:24:7d:45:96:ce:
         02:34:27:17:6e:72:f7:a0:5a:e3:ff:29:74:d9:09:16:11:95:
         5f:87:99:e8:7e:ae:fa:ce:a3:bb:b3:3e:10:e2:3b:e0:93:95:
         80:2c:b7:9f:2a:c3:fb:ee:05:75:9d:4f:c6:c8:7e:09:9a:1f:
         cf:40:99:43:1f:e4:42:58:88:be:ea:fa:34:56:00:7d:b5:32:
         e2:9c:78:ea:b2:26:66:37:1d:04:90:83:1a:52:7e:eb:ea:71:
         7b:bf:5f:84:d0:d4:86:e7:49:e8:23:ba:6d:8c:98:cd:7e:54:
         02:55
-----BEGIN CERTIFICATE-----
MIIDDDCCAnWgAwIBAgICEAEwDQYJKoZIhvcNAQELBQAwKDESMBAGA1UEChMJTm9k
ZU9QQ1VBMRIwEAYDVQQDEwlOb2RlT1BDVUEwIhgPMjAxNzA1MTYxMTUzMTBaGA8y
MDE4MDUxNjExNTMxMFowKDESMBAGA1UEChMJTm9kZU9QQ1VBMRIwEAYDVQQDEwlO
b2RlT1BDVUEwgZ8wDQYJKoZIhvcNAQEBBQADgY0AMIGJAoGBAKq5PC1Y2WsyA3Tj
VjqGfGtLZC3eySvD17Thh2jIUjPFVU6K74s5kHMNVWvpKplCVZsfTkfMYEeqBNuL
DsQFGgLnR2q9igte3bz7ASqrQPmlGUMoiWYVqkDMWS1nXVHhEYmvL7KfT3DZegb5
VtCYJCFNI2WtYV98Ot3Z8h5wmCjJAgMBAAGjggE/MIIBOzAMBgNVHRMBAf8EAjAA
MB0GA1UdDgQWBBQGiXtqlo9FCsrxVrG4qJch7Np49zBRBgNVHSMESjBIgBQGiXtq
lo9FCsrxVrG4qJch7Np496EspCowKDESMBAGA1UEChMJTm9kZU9QQ1VBMRIwEAYD
VQQDEwlOb2RlT1BDVUGCAhABMFkGA1UdEQRSMFCGK3VybjpBU0UwNDQtTFQuSU5U
UkEuVFVULkZJOk5vZGVPUENVQS1DbGllbnSCCWxvY2FsaG9zdIIWQVNFMDQ0LUxU
LklOVFJBLlRVVC5GSTAsBglghkgBhvhCAQ0EHxYdT3BlblNTTCBHZW5lcmF0ZWQg
Q2VydGlmaWNhdGUwDgYDVR0PAQH/BAQDAgL8MCAGA1UdJQEB/wQWMBQGCCsGAQUF
BwMBBggrBgEFBQcDAjANBgkqhkiG9w0BAQsFAAOBgQBR8ftwgWaFGca/kCpOJH1F
ls4CNCcXbnL3oFrj/yl02QkWEZVfh5nofq76zqO7sz4Q4jvgk5WALLefKsP77gV1
nU/GyH4Jmh/PQJlDH+RCWIi+6vo0VgB9tTLinHjqsiZmNx0EkIMaUn7r6nF7v1+E
0NSG50noI7ptjJjNflQCVQ==
-----END CERTIFICATE-----
