Certificate:
    Data:
        Version: 3 (0x2)
        Serial Number: 4102 (0x1006)
    Signature Algorithm: sha256WithRSAEncryption
        Issuer: C=FR, ST=IDF, L=Paris, O=Local NODE-OPCUA Certificate Authority, CN=NodeOPCUA-CA
        Validity
            Not Before: May 16 11:53:10 2017 GMT
            Not After : May 16 11:53:10 2018 GMT
        Subject: C=FR, O=NodeOPCUA, CN=NodeOPCUA
        Subject Public Key Info:
            Public Key Algorithm: rsaEncryption
                Public-Key: (2048 bit)
                Modulus:
                    00:c9:33:68:61:cf:0f:66:59:87:b6:90:c4:d3:7d:
                    11:0b:0b:9b:ea:ba:20:a4:9f:f2:cd:c8:2b:f9:da:
                    67:d7:e8:38:80:cc:ac:80:31:9e:1a:63:ad:85:ed:
                    5d:3e:7f:7e:14:b9:63:b3:bb:67:0e:83:a1:cc:8a:
                    91:83:fe:02:71:74:33:fa:bf:3d:c0:7e:f8:96:87:
                    e0:7a:c3:21:72:95:83:58:95:98:90:da:e3:a7:58:
                    b1:4e:cd:d2:c4:41:79:34:22:c4:fa:03:fa:01:54:
                    83:4a:3c:1e:17:c8:56:1b:fe:f5:7b:04:f0:b9:8d:
                    3e:f7:11:9f:f9:a8:92:29:48:fb:c2:e8:95:fd:a9:
                    b6:75:ef:76:14:8d:29:82:a7:8f:a0:e4:3d:e3:0c:
                    6d:8f:eb:c7:56:2e:cd:c5:7d:91:27:ba:8d:a6:45:
                    cd:60:40:e1:5e:c4:80:f5:e0:a6:1b:ab:d7:58:df:
                    db:2d:cd:f0:d6:60:de:79:ae:5e:7f:f4:d2:9e:79:
                    62:0a:1e:0d:2d:7d:f2:36:7b:5d:3a:17:26:4e:ab:
                    1b:ba:72:fe:c4:52:20:6b:74:da:53:9f:1a:55:09:
                    0c:e6:ed:ee:e5:36:be:4c:a0:5d:b7:5d:ae:51:50:
                    93:0f:3c:e9:fe:74:f4:eb:e9:0f:e7:4e:e8:c7:8f:
                    0f:89
                Exponent: 65537 (0x10001)
        X509v3 extensions:
            X509v3 Basic Constraints: critical
                CA:FALSE
            X509v3 Subject Key Identifier: 
                DD:F8:8F:C8:05:C8:CA:34:8F:F8:3A:8A:3A:5A:04:7F:57:F7:EF:0F
            X509v3 Authority Key Identifier: 
                keyid:62:1D:0F:2B:99:F3:81:27:18:EB:32:A8:E7:56:3B:59:0F:A2:3C:EC
                DirName:/C=FR/ST=IDF/L=Paris/O=Local NODE-OPCUA Certificate Authority/CN=NodeOPCUA-CA
                serial:9B:E7:E8:F9:8D:80:14:28

            X509v3 Subject Alternative Name: 
                URI:urn:ASE044-LT.INTRA.TUT.FI:NodeOPCUA-Server, DNS:localhost, DNS:ASE044-LT.INTRA.TUT.FI
            Netscape Comment: 
                OpenSSL Generated Certificate
            X509v3 Key Usage: critical
                Digital Signature, Non Repudiation, Key Encipherment, Data Encipherment, Key Agreement, Certificate Sign
            X509v3 Extended Key Usage: critical
                TLS Web Server Authentication, TLS Web Client Authentication
    Signature Algorithm: sha256WithRSAEncryption
         91:da:81:4f:85:b9:5a:6a:d5:83:a4:09:16:74:4a:95:e0:52:
         a1:61:35:f4:1f:85:99:82:ee:1a:49:a9:3b:e7:ec:46:f5:2c:
         29:1e:fa:91:b9:ae:15:d0:2d:84:07:f3:08:42:bd:7d:fb:27:
         77:9a:a0:ef:dd:13:0e:63:c0:53:16:cf:54:4c:49:a1:b9:1d:
         e6:24:8c:46:3a:6e:10:92:8c:fb:6b:c1:4f:7e:12:90:95:cf:
         de:fd:93:26:be:34:d3:26:85:33:4f:20:8c:3c:22:fe:8c:04:
         19:17:0e:d9:ad:18:b0:e5:75:86:52:62:c3:3a:51:9c:b6:94:
         9a:6e:3e:31:8d:00:5b:7f:6e:4a:66:df:a4:ff:61:ee:da:f6:
         3b:df:b3:9c:46:b6:4c:c0:26:60:54:d6:8c:14:6b:5f:4d:f1:
         b7:46:ae:3b:26:72:b6:09:b3:64:ed:36:e7:65:1c:f2:83:1e:
         b3:49:46:43:55:1e:e3:dd:1a:e4:e1:36:46:b6:fe:fe:d3:74:
         fc:30:1b:27:a2:7a:44:aa:c5:d0:ba:71:d1:11:28:a7:db:23:
         3f:5b:35:4f:43:04:df:61:b3:57:af:44:e9:d7:5b:11:74:45:
         a6:13:ff:8b:20:43:47:67:12:5e:6a:b5:51:fb:72:51:13:0e:
         5f:84:45:f3
-----BEGIN CERTIFICATE-----
MIIEvjCCA6agAwIBAgICEAYwDQYJKoZIhvcNAQELBQAwczELMAkGA1UEBhMCRlIx
DDAKBgNVBAgTA0lERjEOMAwGA1UEBxMFUGFyaXMxLzAtBgNVBAoTJkxvY2FsIE5P
REUtT1BDVUEgQ2VydGlmaWNhdGUgQXV0aG9yaXR5MRUwEwYDVQQDEwxOb2RlT1BD
VUEtQ0EwIhgPMjAxNzA1MTYxMTUzMTBaGA8yMDE4MDUxNjExNTMxMFowNTELMAkG
A1UEBhMCRlIxEjAQBgNVBAoMCU5vZGVPUENVQTESMBAGA1UEAwwJTm9kZU9QQ1VB
MIIBIjANBgkqhkiG9w0BAQEFAAOCAQ8AMIIBCgKCAQEAyTNoYc8PZlmHtpDE030R
Cwub6rogpJ/yzcgr+dpn1+g4gMysgDGeGmOthe1dPn9+FLljs7tnDoOhzIqRg/4C
cXQz+r89wH74lofgesMhcpWDWJWYkNrjp1ixTs3SxEF5NCLE+gP6AVSDSjweF8hW
G/71ewTwuY0+9xGf+aiSKUj7wuiV/am2de92FI0pgqePoOQ94wxtj+vHVi7NxX2R
J7qNpkXNYEDhXsSA9eCmG6vXWN/bLc3w1mDeea5ef/TSnnliCh4NLX3yNntdOhcm
TqsbunL+xFIga3TaU58aVQkM5u3u5Ta+TKBdt12uUVCTDzzp/nT06+kP507ox48P
iQIDAQABo4IBlDCCAZAwDAYDVR0TAQH/BAIwADAdBgNVHQ4EFgQU3fiPyAXIyjSP
+DqKOloEf1f37w8wgaUGA1UdIwSBnTCBmoAUYh0PK5nzgScY6zKo51Y7WQ+iPOyh
d6R1MHMxCzAJBgNVBAYTAkZSMQwwCgYDVQQIEwNJREYxDjAMBgNVBAcTBVBhcmlz
MS8wLQYDVQQKEyZMb2NhbCBOT0RFLU9QQ1VBIENlcnRpZmljYXRlIEF1dGhvcml0
eTEVMBMGA1UEAxMMTm9kZU9QQ1VBLUNBggkAm+fo+Y2AFCgwWQYDVR0RBFIwUIYr
dXJuOkFTRTA0NC1MVC5JTlRSQS5UVVQuRkk6Tm9kZU9QQ1VBLVNlcnZlcoIJbG9j
YWxob3N0ghZBU0UwNDQtTFQuSU5UUkEuVFVULkZJMCwGCWCGSAGG+EIBDQQfFh1P
cGVuU1NMIEdlbmVyYXRlZCBDZXJ0aWZpY2F0ZTAOBgNVHQ8BAf8EBAMCAvwwIAYD
VR0lAQH/BBYwFAYIKwYBBQUHAwEGCCsGAQUFBwMCMA0GCSqGSIb3DQEBCwUAA4IB
AQCR2oFPhblaatWDpAkWdEqV4FKhYTX0H4WZgu4aSak75+xG9SwpHvqRua4V0C2E
B/MIQr19+yd3mqDv3RMOY8BTFs9UTEmhuR3mJIxGOm4Qkoz7a8FPfhKQlc/e/ZMm
vjTTJoUzTyCMPCL+jAQZFw7ZrRiw5XWGUmLDOlGctpSabj4xjQBbf25KZt+k/2Hu
2vY737OcRrZMwCZgVNaMFGtfTfG3Rq47JnK2CbNk7TbnZRzygx6zSUZDVR7j3Rrk
4TZGtv7+03T8MBsnonpEqsXQunHRESin2yM/WzVPQwTfYbNXr0Tp11sRdEWmE/+L
IENHZxJearVR+3JREw5fhEXz
-----END CERTIFICATE-----
