Certificate:
    Data:
        Version: 3 (0x2)
        Serial Number: 4103 (0x1007)
    Signature Algorithm: sha256WithRSAEncryption
        Issuer: O=NodeOPCUA, CN=NodeOPCUA
        Validity
            Not Before: May 16 11:53:10 2017 GMT
            Not After : May 16 11:53:10 2018 GMT
        Subject: O=NodeOPCUA, CN=NodeOPCUA
        Subject Public Key Info:
            Public Key Algorithm: rsaEncryption
                Public-Key: (2048 bit)
                Modulus:
                    00:c9:33:68:61:cf:0f:66:59:87:b6:90:c4:d3:7d:
                    11:0b:0b:9b:ea:ba:20:a4:9f:f2:cd:c8:2b:f9:da:
                    67:d7:e8:38:80:cc:ac:80:31:9e:1a:63:ad:85:ed:
                    5d:3e:7f:7e:14:b9:63:b3:bb:67:0e:83:a1:cc:8a:
                    91:83:fe:02:71:74:33:fa:bf:3d:c0:7e:f8:96:87:
                    e0:7a:c3:21:72:95:83:58:95:98:90:da:e3:a7:58:
                    b1:4e:cd:d2:c4:41:79:34:22:c4:fa:03:fa:01:54:
                    83:4a:3c:1e:17:c8:56:1b:fe:f5:7b:04:f0:b9:8d:
                    3e:f7:11:9f:f9:a8:92:29:48:fb:c2:e8:95:fd:a9:
                    b6:75:ef:76:14:8d:29:82:a7:8f:a0:e4:3d:e3:0c:
                    6d:8f:eb:c7:56:2e:cd:c5:7d:91:27:ba:8d:a6:45:
                    cd:60:40:e1:5e:c4:80:f5:e0:a6:1b:ab:d7:58:df:
                    db:2d:cd:f0:d6:60:de:79:ae:5e:7f:f4:d2:9e:79:
                    62:0a:1e:0d:2d:7d:f2:36:7b:5d:3a:17:26:4e:ab:
                    1b:ba:72:fe:c4:52:20:6b:74:da:53:9f:1a:55:09:
                    0c:e6:ed:ee:e5:36:be:4c:a0:5d:b7:5d:ae:51:50:
                    93:0f:3c:e9:fe:74:f4:eb:e9:0f:e7:4e:e8:c7:8f:
                    0f:89
                Exponent: 65537 (0x10001)
        X509v3 extensions:
            X509v3 Basic Constraints: critical
                CA:FALSE
            X509v3 Subject Key Identifier: 
                DD:F8:8F:C8:05:C8:CA:34:8F:F8:3A:8A:3A:5A:04:7F:57:F7:EF:0F
            X509v3 Authority Key Identifier: 
                keyid:DD:F8:8F:C8:05:C8:CA:34:8F:F8:3A:8A:3A:5A:04:7F:57:F7:EF:0F
                DirName:/O=NodeOPCUA/CN=NodeOPCUA
                serial:10:07

            X509v3 Subject Alternative Name: 
                URI:urn:ASE044-LT.INTRA.TUT.FI:NodeOPCUA-Server, DNS:localhost, DNS:ASE044-LT.INTRA.TUT.FI
            Netscape Comment: 
                OpenSSL Generated Certificate
            X509v3 Key Usage: critical
                Digital Signature, Non Repudiation, Key Encipherment, Data Encipherment, Key Agreement, Certificate Sign
            X509v3 Extended Key Usage: critical
                TLS Web Server Authentication, TLS Web Client Authentication
    Signature Algorithm: sha256WithRSAEncryption
         3f:a3:7d:2b:fc:0e:30:07:12:12:e0:b9:e9:93:89:46:38:7e:
         90:0b:cd:13:b3:08:af:97:1f:6a:b8:1c:72:66:67:36:d0:d8:
         39:e9:74:5a:63:7a:3c:82:50:f8:c3:c1:b1:a5:1c:d8:ab:f3:
         00:1d:78:08:93:01:8a:e1:61:14:33:79:81:63:c5:42:43:82:
         ce:1b:63:c6:5e:25:da:f6:25:6a:85:43:6b:73:d5:3d:d5:88:
         8c:33:de:49:d3:07:b7:7d:e4:4e:d3:fc:65:85:4c:99:d4:f2:
         32:e4:d6:49:6c:80:02:93:0b:c4:8e:b9:8b:e2:fa:99:95:53:
         f3:49:24:de:a2:5d:d5:eb:d7:1d:5b:b8:ea:2c:20:84:94:9f:
         21:e9:ba:a2:3f:2b:3f:1c:66:77:1b:69:51:82:1e:71:dd:b4:
         2f:68:65:21:37:ff:b0:57:46:af:2a:ac:3a:ab:18:0e:a0:0f:
         ff:1a:5c:a4:25:b5:4a:88:a1:ae:dd:18:9f:f7:a9:ba:f0:33:
         92:bc:ee:b7:74:c8:6c:d9:12:65:51:92:2a:77:6f:4e:f2:a6:
         be:57:93:1c:94:86:d0:22:d9:65:f3:37:99:b9:b2:53:2f:0c:
         92:1b:eb:70:03:63:d5:53:1b:ff:6e:ee:ba:93:92:11:ee:ca:
         e9:84:e7:19
-----BEGIN CERTIFICATE-----
MIIEETCCAvmgAwIBAgICEAcwDQYJKoZIhvcNAQELBQAwKDESMBAGA1UEChMJTm9k
ZU9QQ1VBMRIwEAYDVQQDEwlOb2RlT1BDVUEwIhgPMjAxNzA1MTYxMTUzMTBaGA8y
MDE4MDUxNjExNTMxMFowKDESMBAGA1UEChMJTm9kZU9QQ1VBMRIwEAYDVQQDEwlO
b2RlT1BDVUEwggEiMA0GCSqGSIb3DQEBAQUAA4IBDwAwggEKAoIBAQDJM2hhzw9m
WYe2kMTTfRELC5vquiCkn/LNyCv52mfX6DiAzKyAMZ4aY62F7V0+f34UuWOzu2cO
g6HMipGD/gJxdDP6vz3AfviWh+B6wyFylYNYlZiQ2uOnWLFOzdLEQXk0IsT6A/oB
VINKPB4XyFYb/vV7BPC5jT73EZ/5qJIpSPvC6JX9qbZ173YUjSmCp4+g5D3jDG2P
68dWLs3FfZEnuo2mRc1gQOFexID14KYbq9dY39stzfDWYN55rl5/9NKeeWIKHg0t
ffI2e106FyZOqxu6cv7EUiBrdNpTnxpVCQzm7e7lNr5MoF23Xa5RUJMPPOn+dPTr
6Q/nTujHjw+JAgMBAAGjggE/MIIBOzAMBgNVHRMBAf8EAjAAMB0GA1UdDgQWBBTd
+I/IBcjKNI/4Ooo6WgR/V/fvDzBRBgNVHSMESjBIgBTd+I/IBcjKNI/4Ooo6WgR/
V/fvD6EspCowKDESMBAGA1UEChMJTm9kZU9QQ1VBMRIwEAYDVQQDEwlOb2RlT1BD
VUGCAhAHMFkGA1UdEQRSMFCGK3VybjpBU0UwNDQtTFQuSU5UUkEuVFVULkZJOk5v
ZGVPUENVQS1TZXJ2ZXKCCWxvY2FsaG9zdIIWQVNFMDQ0LUxULklOVFJBLlRVVC5G
STAsBglghkgBhvhCAQ0EHxYdT3BlblNTTCBHZW5lcmF0ZWQgQ2VydGlmaWNhdGUw
DgYDVR0PAQH/BAQDAgL8MCAGA1UdJQEB/wQWMBQGCCsGAQUFBwMBBggrBgEFBQcD
AjANBgkqhkiG9w0BAQsFAAOCAQEAP6N9K/wOMAcSEuC56ZOJRjh+kAvNE7MIr5cf
argccmZnNtDYOel0WmN6PIJQ+MPBsaUc2KvzAB14CJMBiuFhFDN5gWPFQkOCzhtj
xl4l2vYlaoVDa3PVPdWIjDPeSdMHt33kTtP8ZYVMmdTyMuTWSWyAApMLxI65i+L6
mZVT80kk3qJd1evXHVu46iwghJSfIem6oj8rPxxmdxtpUYIecd20L2hlITf/sFdG
ryqsOqsYDqAP/xpcpCW1Soihrt0Yn/epuvAzkrzut3TIbNkSZVGSKndvTvKmvleT
HJSG0CLZZfM3mbmyUy8MkhvrcANj1VMb/27uupOSEe7K6YTnGQ==
-----END CERTIFICATE-----
