Certificate Request:
    Data:
        Version: 0 (0x0)
        Subject: C=FR, O=NodeOPCUA, CN=NodeOPCUA
        Subject Public Key Info:
            Public Key Algorithm: rsaEncryption
                Public-Key: (2048 bit)
                Modulus:
                    00:c3:79:bb:a2:7d:95:87:29:ef:b6:2c:0a:77:d8:
                    0a:93:5e:b7:e2:c6:76:35:7c:d8:63:f6:cf:e9:e3:
                    1d:fb:55:25:1d:92:11:46:50:07:96:34:a9:45:85:
                    4f:03:b0:c0:e0:a8:a9:3c:b0:8a:db:6c:a1:18:5c:
                    dd:f5:4a:92:14:77:59:22:15:62:86:1a:ae:6a:f7:
                    5c:a9:2d:ab:04:8d:01:b6:12:8a:0e:d8:18:e0:9e:
                    0e:f7:76:b7:7d:50:5d:ad:c0:ef:34:0c:ce:a5:76:
                    d7:8d:24:23:96:85:ec:4e:37:23:0e:5e:96:9d:7a:
                    b9:d5:0d:ec:33:1d:8e:9b:3d:16:19:18:03:7a:57:
                    16:25:9c:e6:1f:33:69:ad:aa:6d:ed:4c:06:60:bf:
                    4a:b6:5a:3f:0e:ce:b4:65:79:77:11:cc:9e:2b:42:
                    e4:49:cc:50:bc:88:60:64:2e:fc:d4:3d:db:cf:2f:
                    3f:09:fe:81:5a:10:b0:e9:c3:c5:22:63:39:55:ef:
                    7d:21:86:1b:42:b5:07:e4:32:60:f1:df:86:c3:49:
                    fa:94:32:32:c1:24:4c:b8:50:56:66:a1:da:ac:66:
                    c6:c7:80:89:53:52:6b:c1:76:30:eb:bb:61:50:f5:
                    e6:c1:ce:2b:9b:5f:e3:e5:75:4b:e7:e5:f1:8a:e4:
                    b6:83
                Exponent: 65537 (0x10001)
        Attributes:
        Requested Extensions:
            X509v3 Basic Constraints: 
                CA:FALSE
            X509v3 Key Usage: critical
                Certificate Sign, CRL Sign
            X509v3 Subject Alternative Name: 
                URI:undefined
    Signature Algorithm: sha256WithRSAEncryption
         b4:9c:d8:45:ab:69:25:46:95:6a:94:7e:ae:d3:4e:ea:49:e8:
         a5:f9:f9:56:fa:37:5f:af:29:75:6d:23:1e:8f:89:2a:b9:81:
         e3:f6:0b:c0:1c:0e:23:cf:6d:37:96:26:9c:ca:cd:64:52:b7:
         db:4a:f8:6a:37:84:2e:68:53:9f:7c:bd:85:f1:49:74:d8:09:
         8d:cb:ef:13:d6:7c:81:d7:01:98:69:a2:90:fd:75:f0:4c:46:
         6b:ec:7a:70:93:e8:dc:a2:fa:03:3c:10:50:d4:80:0d:dd:bb:
         fa:34:a6:99:60:4e:58:33:cd:dd:7b:17:1a:75:c2:49:12:09:
         39:5a:c3:19:e7:43:0a:2c:a3:04:0d:7e:d1:83:98:55:3a:48:
         64:23:91:4c:c7:0b:c8:51:43:36:ce:94:64:1a:0d:a7:df:1f:
         71:62:4d:b4:85:41:4c:35:19:1e:4b:e3:3f:e7:4b:95:ad:14:
         9e:5e:6c:24:09:48:e8:9a:67:46:03:ad:10:a0:7b:3b:ed:bc:
         4c:f8:60:05:20:2c:0b:3d:c5:39:1a:e2:99:e5:a4:d8:04:82:
         00:4a:1a:06:b3:71:b5:b0:43:4a:2d:24:f1:10:f6:0e:0a:be:
         8c:21:9a:14:a6:88:34:4c:ec:b0:c1:25:c3:88:c7:2d:06:bd:
         06:24:a7:0c
-----BEGIN CERTIFICATE REQUEST-----
MIICvDCCAaQCAQAwNTELMAkGA1UEBhMCRlIxEjAQBgNVBAoMCU5vZGVPUENVQTES
MBAGA1UEAwwJTm9kZU9QQ1VBMIIBIjANBgkqhkiG9w0BAQEFAAOCAQ8AMIIBCgKC
AQEAw3m7on2VhynvtiwKd9gKk1634sZ2NXzYY/bP6eMd+1UlHZIRRlAHljSpRYVP
A7DA4KipPLCK22yhGFzd9UqSFHdZIhVihhquavdcqS2rBI0BthKKDtgY4J4O93a3
fVBdrcDvNAzOpXbXjSQjloXsTjcjDl6WnXq51Q3sMx2Omz0WGRgDelcWJZzmHzNp
rapt7UwGYL9Ktlo/Ds60ZXl3EcyeK0LkScxQvIhgZC781D3bzy8/Cf6BWhCw6cPF
ImM5Ve99IYYbQrUH5DJg8d+Gw0n6lDIywSRMuFBWZqHarGbGx4CJU1JrwXYw67th
UPXmwc4rm1/j5XVL5+XxiuS2gwIDAQABoEIwQAYJKoZIhvcNAQkOMTMwMTAJBgNV
HRMEAjAAMA4GA1UdDwEB/wQEAwIBBjAUBgNVHREEDTALhgl1bmRlZmluZWQwDQYJ
KoZIhvcNAQELBQADggEBALSc2EWraSVGlWqUfq7TTupJ6KX5+Vb6N1+vKXVtIx6P
iSq5geP2C8AcDiPPbTeWJpzKzWRSt9tK+Go3hC5oU598vYXxSXTYCY3L7xPWfIHX
AZhpopD9dfBMRmvsenCT6Nyi+gM8EFDUgA3du/o0pplgTlgzzd17Fxp1wkkSCTla
wxnnQwosowQNftGDmFU6SGQjkUzHC8hRQzbOlGQaDaffH3FiTbSFQUw1GR5L4z/n
S5WtFJ5ebCQJSOiaZ0YDrRCgezvtvEz4YAUgLAs9xTka4pnlpNgEggBKGgazcbWw
Q0otJPEQ9g4KvowhmhSmiDRM7LDBJcOIxy0GvQYkpww=
-----END CERTIFICATE REQUEST-----
