Certificate:
    Data:
        Version: 3 (0x2)
        Serial Number: 4104 (0x1008)
    Signature Algorithm: sha256WithRSAEncryption
        Issuer: C=FR, ST=IDF, L=Paris, O=Local NODE-OPCUA Certificate Authority, CN=NodeOPCUA-CA
        Validity
            Not Before: May 16 11:53:10 2017 GMT
            Not After : May 16 11:53:10 2018 GMT
        Subject: C=FR, O=NodeOPCUA, CN=NodeOPCUA
        Subject Public Key Info:
            Public Key Algorithm: rsaEncryption
                Public-Key: (1024 bit)
                Modulus:
                    00:c4:ef:aa:fa:36:6c:0f:11:37:21:5b:2a:20:d8:
                    5e:9a:60:44:2e:19:20:d4:7b:46:de:9a:2e:a9:c4:
                    07:c0:ee:5a:5e:d1:30:20:6d:f7:b2:57:31:e5:cb:
                    6f:c5:32:5d:fe:4d:25:8c:ea:e6:13:a0:1a:fa:b9:
                    b8:b1:fa:55:d7:ee:7f:8c:40:b7:41:1e:87:a8:b6:
                    d5:58:c3:a8:c3:16:e8:1f:0c:b9:a1:fe:0c:da:20:
                    23:f0:a4:a8:f7:fa:74:23:0e:78:2f:8f:29:99:b9:
                    e6:8d:18:00:86:54:8a:31:7f:4c:a1:55:8a:68:41:
                    75:7a:ff:26:6a:91:11:b0:51
                Exponent: 65537 (0x10001)
        X509v3 extensions:
            X509v3 Basic Constraints: critical
                CA:FALSE
            X509v3 Subject Key Identifier: 
                5C:82:72:FA:0C:27:F1:26:6F:39:31:DC:5A:E3:F2:D2:CE:93:03:4D
            X509v3 Authority Key Identifier: 
                keyid:62:1D:0F:2B:99:F3:81:27:18:EB:32:A8:E7:56:3B:59:0F:A2:3C:EC
                DirName:/C=FR/ST=IDF/L=Paris/O=Local NODE-OPCUA Certificate Authority/CN=NodeOPCUA-CA
                serial:9B:E7:E8:F9:8D:80:14:28

            X509v3 Subject Alternative Name: 
                URI:urn:ASE044-LT.INTRA.TUT.FI:NodeOPCUA-DiscoveryServer, DNS:localhost, DNS:ASE044-LT.INTRA.TUT.FI
            Netscape Comment: 
                OpenSSL Generated Certificate
            X509v3 Key Usage: critical
                Digital Signature, Non Repudiation, Key Encipherment, Data Encipherment, Key Agreement, Certificate Sign
            X509v3 Extended Key Usage: critical
                TLS Web Server Authentication, TLS Web Client Authentication
    Signature Algorithm: sha256WithRSAEncryption
         cd:b3:7b:c6:21:48:85:26:82:e1:a7:e1:7d:0b:a7:c7:ce:ad:
         0b:63:e2:80:7b:17:b3:53:fd:30:b0:bf:8c:eb:07:3c:48:3f:
         39:64:e0:2f:76:67:fa:70:70:cd:42:5a:71:0c:63:fb:5d:b0:
         42:92:b2:a1:70:e6:ff:a5:72:5f:61:e5:27:be:bd:e5:24:1e:
         22:04:c4:52:e2:82:82:fe:7e:84:09:39:32:3d:c3:b9:b4:ea:
         39:44:8d:ad:5b:02:9c:d1:91:a6:c5:c6:a2:63:1c:0b:1d:e7:
         8b:02:71:8a:71:77:a2:11:8a:54:a9:47:05:7b:81:4c:04:47:
         45:55:02:99:40:2c:ec:9a:2e:00:81:a1:8f:78:e7:1c:64:a5:
         e4:13:60:c7:9a:a3:d3:b0:f2:f4:3f:e5:74:6c:5e:17:dd:90:
         b8:3e:8a:6e:a5:9c:08:f1:33:ea:9a:04:62:16:9a:44:11:bb:
         7c:02:23:35:0c:11:44:f9:2a:2d:47:a6:7e:19:72:cc:39:c8:
         d0:70:a3:23:35:a7:a8:01:7d:00:21:c1:69:d1:69:06:96:06:
         cd:9f:9e:e5:9c:1a:fb:a9:d6:3c:68:aa:09:b3:bd:c3:bc:2c:
         a3:fd:58:e7:4a:ee:ea:86:c5:9d:77:1b:fe:b8:83:9c:4a:74:
         23:b8:db:59
-----BEGIN CERTIFICATE-----
MIIEQzCCAyugAwIBAgICEAgwDQYJKoZIhvcNAQELBQAwczELMAkGA1UEBhMCRlIx
DDAKBgNVBAgTA0lERjEOMAwGA1UEBxMFUGFyaXMxLzAtBgNVBAoTJkxvY2FsIE5P
REUtT1BDVUEgQ2VydGlmaWNhdGUgQXV0aG9yaXR5MRUwEwYDVQQDEwxOb2RlT1BD
VUEtQ0EwIhgPMjAxNzA1MTYxMTUzMTBaGA8yMDE4MDUxNjExNTMxMFowNTELMAkG
A1UEBhMCRlIxEjAQBgNVBAoMCU5vZGVPUENVQTESMBAGA1UEAwwJTm9kZU9QQ1VB
MIGfMA0GCSqGSIb3DQEBAQUAA4GNADCBiQKBgQDE76r6NmwPETchWyog2F6aYEQu
GSDUe0bemi6pxAfA7lpe0TAgbfeyVzHly2/FMl3+TSWM6uYToBr6ubix+lXX7n+M
QLdBHoeottVYw6jDFugfDLmh/gzaICPwpKj3+nQjDngvjymZueaNGACGVIoxf0yh
VYpoQXV6/yZqkRGwUQIDAQABo4IBnTCCAZkwDAYDVR0TAQH/BAIwADAdBgNVHQ4E
FgQUXIJy+gwn8SZvOTHcWuPy0s6TA00wgaUGA1UdIwSBnTCBmoAUYh0PK5nzgScY
6zKo51Y7WQ+iPOyhd6R1MHMxCzAJBgNVBAYTAkZSMQwwCgYDVQQIEwNJREYxDjAM
BgNVBAcTBVBhcmlzMS8wLQYDVQQKEyZMb2NhbCBOT0RFLU9QQ1VBIENlcnRpZmlj
YXRlIEF1dGhvcml0eTEVMBMGA1UEAxMMTm9kZU9QQ1VBLUNBggkAm+fo+Y2AFCgw
YgYDVR0RBFswWYY0dXJuOkFTRTA0NC1MVC5JTlRSQS5UVVQuRkk6Tm9kZU9QQ1VB
LURpc2NvdmVyeVNlcnZlcoIJbG9jYWxob3N0ghZBU0UwNDQtTFQuSU5UUkEuVFVU
LkZJMCwGCWCGSAGG+EIBDQQfFh1PcGVuU1NMIEdlbmVyYXRlZCBDZXJ0aWZpY2F0
ZTAOBgNVHQ8BAf8EBAMCAvwwIAYDVR0lAQH/BBYwFAYIKwYBBQUHAwEGCCsGAQUF
BwMCMA0GCSqGSIb3DQEBCwUAA4IBAQDNs3vGIUiFJoLhp+F9C6fHzq0LY+KAexez
U/0wsL+M6wc8SD85ZOAvdmf6cHDNQlpxDGP7XbBCkrKhcOb/pXJfYeUnvr3lJB4i
BMRS4oKC/n6ECTkyPcO5tOo5RI2tWwKc0ZGmxcaiYxwLHeeLAnGKcXeiEYpUqUcF
e4FMBEdFVQKZQCzsmi4AgaGPeOccZKXkE2DHmqPTsPL0P+V0bF4X3ZC4PopupZwI
8TPqmgRiFppEEbt8AiM1DBFE+SotR6Z+GXLMOcjQcKMjNaeoAX0AIcFp0WkGlgbN
n57lnBr7qdY8aKoJs73DvCyj/VjnSu7qhsWddxv+uIOcSnQjuNtZ
-----END CERTIFICATE-----
-----BEGIN CERTIFICATE-----
MIIE3TCCA8WgAwIBAgIJAJvn6PmNgBQoMA0GCSqGSIb3DQEBCwUAMHMxCzAJBgNV
BAYTAkZSMQwwCgYDVQQIEwNJREYxDjAMBgNVBAcTBVBhcmlzMS8wLQYDVQQKEyZM
b2NhbCBOT0RFLU9QQ1VBIENlcnRpZmljYXRlIEF1dGhvcml0eTEVMBMGA1UEAxMM
Tm9kZU9QQ1VBLUNBMB4XDTE3MDUxNzExNTMxN1oXDTI3MDUxNTExNTMxN1owczEL
MAkGA1UEBhMCRlIxDDAKBgNVBAgTA0lERjEOMAwGA1UEBxMFUGFyaXMxLzAtBgNV
BAoTJkxvY2FsIE5PREUtT1BDVUEgQ2VydGlmaWNhdGUgQXV0aG9yaXR5MRUwEwYD
VQQDEwxOb2RlT1BDVUEtQ0EwggEiMA0GCSqGSIb3DQEBAQUAA4IBDwAwggEKAoIB
AQDsfDk2ti4lC1tIdPV5ENwU2KlF7I4KTrHr7r10IiUkcSV1dquT0+8AnYdgi9ZZ
F53PvHn2AJQRR91P2+xx3V+rqfH6KuUXs69mpyHyhgNBu8hfDb3YoBU1lr0MPLF1
d2S8mSts4syCnBWvqRwjLjT6XMOA6m0VbVWX8Oy8aCaYiEiUt9WWPeC5bQ9BUCk+
xteltJC9/fFh8i1wDEg9/T9EOPCUqpghIfz4NSbZ379pXCjqrXUHXK8v3gOWahX2
b3NJgML7Q4h4ck8CEEe9IilwP3zsFE4ADySUL7tDwB7FZ3L9BhDvMT2dKICgzO+e
lig5qXfVqqltsjJpvYNUDWQhAgMBAAGjggFyMIIBbjAdBgNVHQ4EFgQUYh0PK5nz
gScY6zKo51Y7WQ+iPOwwgaUGA1UdIwSBnTCBmoAUYh0PK5nzgScY6zKo51Y7WQ+i
POyhd6R1MHMxCzAJBgNVBAYTAkZSMQwwCgYDVQQIEwNJREYxDjAMBgNVBAcTBVBh
cmlzMS8wLQYDVQQKEyZMb2NhbCBOT0RFLU9QQ1VBIENlcnRpZmljYXRlIEF1dGhv
cml0eTEVMBMGA1UEAxMMTm9kZU9QQ1VBLUNBggkAm+fo+Y2AFCgwDAYDVR0TBAUw
AwEB/zAOBgNVHQ8BAf8EBAMCAQYwVwYJYIZIAYb4QgENBEoWSENBIENlcnRpZmlj
YXRlIGdlbmVyYXRlZCBieSBOb2RlLU9QQ1VBIENlcnRpZmljYXRlIHV0aWxpdHkg
dXNpbmcgb3BlbnNzbDAuBgNVHR8EJzAlMCOgIaAfhh1odHRwOi8vbG9jYWxob3N0
Ojg5MDAvY3JsLnBlbTANBgkqhkiG9w0BAQsFAAOCAQEAPxpk1LsVJXcQ9l8GvEMZ
vibyHFdKyBBraKW7k4RGpL65DMb8ej1x1rtVHlMUbSRh5Dwr6cp4VXowQe1jhCmd
nqG1DkYZZ4RXaUDRP/mk4Hx2lZxXjf3gh6jMaom+ijdX8QEUTFfkHaR1/77b/oW9
c8u4v70OMAbaKSoMhWbvK1eMRFrFGg2KIs19E+Xim29+63S6iONxVbnigDnupDDB
/7km8yc7U8RaPYUpeYhp4gppUwdL0RRUmJ27rSd3gE6Zax42OdsD0WD8dGIHAVLw
HgauE7HfNiWsfe+PVEKINbAlXZpr3WqfJd4mgVx6JUms0hiBk6JvqKfH7mhh5Gsp
bw==
-----END CERTIFICATE-----
