Certificate Request:
    Data:
        Version: 0 (0x0)
        Subject: C=FR, O=NodeOPCUA, CN=NodeOPCUA
        Subject Public Key Info:
            Public Key Algorithm: rsaEncryption
                Public-Key: (1024 bit)
                Modulus:
                    00:c4:ef:aa:fa:36:6c:0f:11:37:21:5b:2a:20:d8:
                    5e:9a:60:44:2e:19:20:d4:7b:46:de:9a:2e:a9:c4:
                    07:c0:ee:5a:5e:d1:30:20:6d:f7:b2:57:31:e5:cb:
                    6f:c5:32:5d:fe:4d:25:8c:ea:e6:13:a0:1a:fa:b9:
                    b8:b1:fa:55:d7:ee:7f:8c:40:b7:41:1e:87:a8:b6:
                    d5:58:c3:a8:c3:16:e8:1f:0c:b9:a1:fe:0c:da:20:
                    23:f0:a4:a8:f7:fa:74:23:0e:78:2f:8f:29:99:b9:
                    e6:8d:18:00:86:54:8a:31:7f:4c:a1:55:8a:68:41:
                    75:7a:ff:26:6a:91:11:b0:51
                Exponent: 65537 (0x10001)
        Attributes:
        Requested Extensions:
            X509v3 Basic Constraints: 
                CA:FALSE
            X509v3 Key Usage: critical
                Certificate Sign, CRL Sign
            X509v3 Subject Alternative Name: 
                URI:undefined
    Signature Algorithm: sha256WithRSAEncryption
         be:f2:7f:0f:74:3b:ce:c2:89:fa:23:b3:26:3e:04:c1:7c:84:
         43:65:5f:a6:6d:f1:9b:1d:c8:eb:38:73:d6:79:a5:7b:4b:8a:
         fa:c1:f0:f3:92:03:06:58:6d:79:72:7f:bf:0f:5b:e9:70:ca:
         44:e6:5f:a0:fe:9c:8d:e2:3f:4d:e0:6c:a0:11:f8:4d:66:bf:
         6e:7d:b4:17:64:cc:4f:13:9e:22:e6:02:02:10:b4:aa:e2:96:
         d5:62:c3:65:63:21:6a:55:af:3c:a7:6c:d8:74:ae:cd:eb:24:
         ed:d3:ab:4c:2e:61:6f:17:86:fe:2e:16:f2:bd:05:f3:55:39:
         ea:0f
-----BEGIN CERTIFICATE REQUEST-----
MIIBtzCCASACAQAwNTELMAkGA1UEBhMCRlIxEjAQBgNVBAoMCU5vZGVPUENVQTES
MBAGA1UEAwwJTm9kZU9QQ1VBMIGfMA0GCSqGSIb3DQEBAQUAA4GNADCBiQKBgQDE
76r6NmwPETchWyog2F6aYEQuGSDUe0bemi6pxAfA7lpe0TAgbfeyVzHly2/FMl3+
TSWM6uYToBr6ubix+lXX7n+MQLdBHoeottVYw6jDFugfDLmh/gzaICPwpKj3+nQj
DngvjymZueaNGACGVIoxf0yhVYpoQXV6/yZqkRGwUQIDAQABoEIwQAYJKoZIhvcN
AQkOMTMwMTAJBgNVHRMEAjAAMA4GA1UdDwEB/wQEAwIBBjAUBgNVHREEDTALhgl1
bmRlZmluZWQwDQYJKoZIhvcNAQELBQADgYEAvvJ/D3Q7zsKJ+iOzJj4EwXyEQ2Vf
pm3xmx3I6zhz1nmle0uK+sHw85IDBlhteXJ/vw9b6XDKROZfoP6cjeI/TeBsoBH4
TWa/bn20F2TMTxOeIuYCAhC0quKW1WLDZWMhalWvPKds2HSuzesk7dOrTC5hbxeG
/i4W8r0F81U56g8=
-----END CERTIFICATE REQUEST-----
