Certificate:
    Data:
        Version: 3 (0x2)
        Serial Number: 4107 (0x100b)
    Signature Algorithm: sha256WithRSAEncryption
        Issuer: O=NodeOPCUA, CN=NodeOPCUA
        Validity
            Not Before: May 16 11:53:10 2017 GMT
            Not After : May 16 11:53:10 2018 GMT
        Subject: O=NodeOPCUA, CN=NodeOPCUA
        Subject Public Key Info:
            Public Key Algorithm: rsaEncryption
                Public-Key: (2048 bit)
                Modulus:
                    00:ba:d5:48:47:70:7b:63:9c:49:1f:b4:9e:6b:3d:
                    7c:a1:af:88:cf:87:84:1b:04:39:98:ea:6f:5e:92:
                    10:2b:90:de:46:67:d0:f6:f2:1c:2a:99:34:ce:60:
                    40:95:b6:43:d4:4e:55:03:9a:2a:5d:0e:42:5f:7b:
                    94:3b:30:fa:f4:75:3c:56:1b:9c:5f:62:07:33:be:
                    37:70:5e:ed:19:d2:e7:c0:fc:21:29:fd:b7:53:cf:
                    11:5b:d0:66:1d:2a:7e:0c:0e:f8:6c:4d:2c:4d:2a:
                    47:11:e7:f2:00:b2:49:ad:3b:4c:05:e8:de:03:02:
                    23:05:42:43:b8:29:cd:2a:5f:cf:a0:e7:05:df:f4:
                    00:3f:3d:57:e0:76:0e:f4:fd:c9:9e:f4:1a:e8:56:
                    f6:ef:cd:a9:24:84:ee:e3:95:a1:03:df:c4:d0:7a:
                    ec:82:25:0a:38:3f:13:37:71:ab:2b:3a:35:2d:43:
                    e2:8f:fc:31:82:1a:53:f1:cd:42:17:51:99:17:30:
                    3c:74:6e:69:cb:8e:aa:37:6a:ec:c1:4b:91:d2:a4:
                    bc:e7:d6:4c:0e:ab:5b:da:09:76:44:f6:5e:5b:63:
                    bc:1b:22:51:ea:a9:47:3f:41:01:a7:71:49:6c:b5:
                    10:43:66:0f:5e:7f:43:32:11:ac:87:c5:15:2b:fc:
                    1b:fd
                Exponent: 65537 (0x10001)
        X509v3 extensions:
            X509v3 Basic Constraints: critical
                CA:FALSE
            X509v3 Subject Key Identifier: 
                AC:19:A7:A0:C1:FB:66:49:5E:83:71:BB:02:F6:16:0C:CB:A9:0D:5E
            X509v3 Authority Key Identifier: 
                keyid:AC:19:A7:A0:C1:FB:66:49:5E:83:71:BB:02:F6:16:0C:CB:A9:0D:5E
                DirName:/O=NodeOPCUA/CN=NodeOPCUA
                serial:10:0B

            X509v3 Subject Alternative Name: 
                URI:urn:ASE044-LT.INTRA.TUT.FI:NodeOPCUA-DiscoveryServer, DNS:localhost, DNS:ASE044-LT.INTRA.TUT.FI
            Netscape Comment: 
                OpenSSL Generated Certificate
            X509v3 Key Usage: critical
                Digital Signature, Non Repudiation, Key Encipherment, Data Encipherment, Key Agreement, Certificate Sign
            X509v3 Extended Key Usage: critical
                TLS Web Server Authentication, TLS Web Client Authentication
    Signature Algorithm: sha256WithRSAEncryption
         06:dd:9e:99:1b:c7:f8:54:73:7b:a9:5b:38:8c:e5:ad:69:b0:
         92:6b:f2:a6:c0:c1:1c:2d:13:e3:3d:0d:5a:eb:a2:ec:e3:68:
         f6:cf:e9:87:13:d5:83:f3:0c:a5:16:83:b1:dd:bc:d8:8b:4d:
         a1:46:b8:9f:fe:a6:38:1e:2e:51:36:32:6c:40:8e:53:1c:b6:
         81:e8:77:b9:10:21:a0:79:e8:5f:ef:e9:f4:8f:74:50:d9:6c:
         30:fc:d4:59:8c:e2:0f:e4:67:8c:67:f6:11:4c:16:d8:3e:5b:
         1e:86:0e:d2:7c:3d:4a:bc:a4:5a:17:c3:ba:66:e3:38:ba:db:
         86:32:d6:e6:e5:1b:0e:94:45:20:4d:b8:d3:d9:76:61:b3:c9:
         87:5e:5e:ec:11:8f:11:88:40:ef:06:05:43:19:b6:62:b8:d5:
         0d:08:ed:d4:11:9c:1d:94:14:28:c0:66:c0:63:87:1c:eb:55:
         38:a0:6d:c0:a0:87:c6:17:a4:cc:97:ef:5d:10:2e:84:96:b0:
         56:59:00:e7:33:c4:44:df:6d:af:1a:99:f4:eb:c6:58:1a:8e:
         d6:65:d5:fd:cc:9b:ef:7e:6a:93:91:15:1f:9b:50:cf:e0:eb:
         5d:4e:bd:92:c0:45:e4:47:b9:1d:9d:74:89:f4:db:c4:71:a2:
         48:ba:e2:8c
-----BEGIN CERTIFICATE-----
MIIEGjCCAwKgAwIBAgICEAswDQYJKoZIhvcNAQELBQAwKDESMBAGA1UEChMJTm9k
ZU9QQ1VBMRIwEAYDVQQDEwlOb2RlT1BDVUEwIhgPMjAxNzA1MTYxMTUzMTBaGA8y
MDE4MDUxNjExNTMxMFowKDESMBAGA1UEChMJTm9kZU9QQ1VBMRIwEAYDVQQDEwlO
b2RlT1BDVUEwggEiMA0GCSqGSIb3DQEBAQUAA4IBDwAwggEKAoIBAQC61UhHcHtj
nEkftJ5rPXyhr4jPh4QbBDmY6m9ekhArkN5GZ9D28hwqmTTOYECVtkPUTlUDmipd
DkJfe5Q7MPr0dTxWG5xfYgczvjdwXu0Z0ufA/CEp/bdTzxFb0GYdKn4MDvhsTSxN
KkcR5/IAskmtO0wF6N4DAiMFQkO4Kc0qX8+g5wXf9AA/PVfgdg70/cme9BroVvbv
zakkhO7jlaED38TQeuyCJQo4PxM3casrOjUtQ+KP/DGCGlPxzUIXUZkXMDx0bmnL
jqo3auzBS5HSpLzn1kwOq1vaCXZE9l5bY7wbIlHqqUc/QQGncUlstRBDZg9ef0My
EayHxRUr/Bv9AgMBAAGjggFIMIIBRDAMBgNVHRMBAf8EAjAAMB0GA1UdDgQWBBSs
GaegwftmSV6DcbsC9hYMy6kNXjBRBgNVHSMESjBIgBSsGaegwftmSV6DcbsC9hYM
y6kNXqEspCowKDESMBAGA1UEChMJTm9kZU9QQ1VBMRIwEAYDVQQDEwlOb2RlT1BD
VUGCAhALMGIGA1UdEQRbMFmGNHVybjpBU0UwNDQtTFQuSU5UUkEuVFVULkZJOk5v
ZGVPUENVQS1EaXNjb3ZlcnlTZXJ2ZXKCCWxvY2FsaG9zdIIWQVNFMDQ0LUxULklO
VFJBLlRVVC5GSTAsBglghkgBhvhCAQ0EHxYdT3BlblNTTCBHZW5lcmF0ZWQgQ2Vy
dGlmaWNhdGUwDgYDVR0PAQH/BAQDAgL8MCAGA1UdJQEB/wQWMBQGCCsGAQUFBwMB
BggrBgEFBQcDAjANBgkqhkiG9w0BAQsFAAOCAQEABt2emRvH+FRze6lbOIzlrWmw
kmvypsDBHC0T4z0NWuui7ONo9s/phxPVg/MMpRaDsd282ItNoUa4n/6mOB4uUTYy
bECOUxy2geh3uRAhoHnoX+/p9I90UNlsMPzUWYziD+RnjGf2EUwW2D5bHoYO0nw9
SrykWhfDumbjOLrbhjLW5uUbDpRFIE2409l2YbPJh15e7BGPEYhA7wYFQxm2YrjV
DQjt1BGcHZQUKMBmwGOHHOtVOKBtwKCHxhekzJfvXRAuhJawVlkA5zPERN9trxqZ
9OvGWBqO1mXV/cyb735qk5EVH5tQz+DrXU69ksBF5Ee5HZ10ifTbxHGiSLrijA==
-----END CERTIFICATE-----
