Certificate:
    Data:
        Version: 3 (0x2)
        Serial Number: 4106 (0x100a)
    Signature Algorithm: sha256WithRSAEncryption
        Issuer: C=FR, ST=IDF, L=Paris, O=Local NODE-OPCUA Certificate Authority, CN=NodeOPCUA-CA
        Validity
            Not Before: May 16 11:53:10 2017 GMT
            Not After : May 16 11:53:10 2018 GMT
        Subject: C=FR, O=NodeOPCUA, CN=NodeOPCUA
        Subject Public Key Info:
            Public Key Algorithm: rsaEncryption
                Public-Key: (2048 bit)
                Modulus:
                    00:ba:d5:48:47:70:7b:63:9c:49:1f:b4:9e:6b:3d:
                    7c:a1:af:88:cf:87:84:1b:04:39:98:ea:6f:5e:92:
                    10:2b:90:de:46:67:d0:f6:f2:1c:2a:99:34:ce:60:
                    40:95:b6:43:d4:4e:55:03:9a:2a:5d:0e:42:5f:7b:
                    94:3b:30:fa:f4:75:3c:56:1b:9c:5f:62:07:33:be:
                    37:70:5e:ed:19:d2:e7:c0:fc:21:29:fd:b7:53:cf:
                    11:5b:d0:66:1d:2a:7e:0c:0e:f8:6c:4d:2c:4d:2a:
                    47:11:e7:f2:00:b2:49:ad:3b:4c:05:e8:de:03:02:
                    23:05:42:43:b8:29:cd:2a:5f:cf:a0:e7:05:df:f4:
                    00:3f:3d:57:e0:76:0e:f4:fd:c9:9e:f4:1a:e8:56:
                    f6:ef:cd:a9:24:84:ee:e3:95:a1:03:df:c4:d0:7a:
                    ec:82:25:0a:38:3f:13:37:71:ab:2b:3a:35:2d:43:
                    e2:8f:fc:31:82:1a:53:f1:cd:42:17:51:99:17:30:
                    3c:74:6e:69:cb:8e:aa:37:6a:ec:c1:4b:91:d2:a4:
                    bc:e7:d6:4c:0e:ab:5b:da:09:76:44:f6:5e:5b:63:
                    bc:1b:22:51:ea:a9:47:3f:41:01:a7:71:49:6c:b5:
                    10:43:66:0f:5e:7f:43:32:11:ac:87:c5:15:2b:fc:
                    1b:fd
                Exponent: 65537 (0x10001)
        X509v3 extensions:
            X509v3 Basic Constraints: critical
                CA:FALSE
            X509v3 Subject Key Identifier: 
                AC:19:A7:A0:C1:FB:66:49:5E:83:71:BB:02:F6:16:0C:CB:A9:0D:5E
            X509v3 Authority Key Identifier: 
                keyid:62:1D:0F:2B:99:F3:81:27:18:EB:32:A8:E7:56:3B:59:0F:A2:3C:EC
                DirName:/C=FR/ST=IDF/L=Paris/O=Local NODE-OPCUA Certificate Authority/CN=NodeOPCUA-CA
                serial:9B:E7:E8:F9:8D:80:14:28

            X509v3 Subject Alternative Name: 
                URI:urn:ASE044-LT.INTRA.TUT.FI:NodeOPCUA-DiscoveryServer, DNS:localhost, DNS:ASE044-LT.INTRA.TUT.FI
            Netscape Comment: 
                OpenSSL Generated Certificate
            X509v3 Key Usage: critical
                Digital Signature, Non Repudiation, Key Encipherment, Data Encipherment, Key Agreement, Certificate Sign
            X509v3 Extended Key Usage: critical
                TLS Web Server Authentication, TLS Web Client Authentication
    Signature Algorithm: sha256WithRSAEncryption
         0c:13:db:8f:64:11:b6:5c:16:f4:02:c1:ca:e0:8d:d7:6b:ca:
         62:e8:5c:50:8d:6e:90:a9:e5:90:74:52:8e:f8:30:1a:f6:ae:
         1e:e7:d0:2a:2f:4a:f8:56:ed:82:03:9e:bb:47:ae:c5:a5:c9:
         98:fd:b8:d9:52:26:5f:2b:4b:ba:39:e4:1c:e1:fb:00:75:ee:
         35:cb:15:3b:3e:cd:8e:fa:9f:c0:60:33:97:34:a0:73:16:4c:
         1f:64:05:8b:36:0f:0d:ca:58:ab:61:67:c9:83:53:b5:af:d4:
         27:fe:ec:c8:8a:c1:36:91:f2:a1:50:ce:40:ce:6c:cd:94:2d:
         76:f9:11:bf:3e:e5:d9:2c:9f:24:0f:d5:1a:ad:b5:77:6d:9d:
         dc:19:4c:d0:fe:9e:f8:37:51:45:48:f1:04:dd:78:05:16:4f:
         4e:e6:84:41:25:85:75:af:0d:a4:ed:a1:88:36:61:58:c6:2b:
         1d:b7:92:47:d2:1f:9f:03:d7:e6:4f:68:3b:22:a4:e7:25:d1:
         62:f8:18:cd:98:ad:da:f6:3c:ff:48:11:f8:13:29:50:7e:0f:
         84:dc:8f:37:48:86:3e:ad:83:94:a6:9b:63:46:01:4b:41:c6:
         6e:74:df:67:03:f4:81:ee:84:0f:58:79:aa:4e:43:de:5c:39:
         c1:70:90:81
-----BEGIN CERTIFICATE-----
MIIExzCCA6+gAwIBAgICEAowDQYJKoZIhvcNAQELBQAwczELMAkGA1UEBhMCRlIx
DDAKBgNVBAgTA0lERjEOMAwGA1UEBxMFUGFyaXMxLzAtBgNVBAoTJkxvY2FsIE5P
REUtT1BDVUEgQ2VydGlmaWNhdGUgQXV0aG9yaXR5MRUwEwYDVQQDEwxOb2RlT1BD
VUEtQ0EwIhgPMjAxNzA1MTYxMTUzMTBaGA8yMDE4MDUxNjExNTMxMFowNTELMAkG
A1UEBhMCRlIxEjAQBgNVBAoMCU5vZGVPUENVQTESMBAGA1UEAwwJTm9kZU9QQ1VB
MIIBIjANBgkqhkiG9w0BAQEFAAOCAQ8AMIIBCgKCAQEAutVIR3B7Y5xJH7Seaz18
oa+Iz4eEGwQ5mOpvXpIQK5DeRmfQ9vIcKpk0zmBAlbZD1E5VA5oqXQ5CX3uUOzD6
9HU8VhucX2IHM743cF7tGdLnwPwhKf23U88RW9BmHSp+DA74bE0sTSpHEefyALJJ
rTtMBejeAwIjBUJDuCnNKl/PoOcF3/QAPz1X4HYO9P3JnvQa6Fb2782pJITu45Wh
A9/E0HrsgiUKOD8TN3GrKzo1LUPij/wxghpT8c1CF1GZFzA8dG5py46qN2rswUuR
0qS859ZMDqtb2gl2RPZeW2O8GyJR6qlHP0EBp3FJbLUQQ2YPXn9DMhGsh8UVK/wb
/QIDAQABo4IBnTCCAZkwDAYDVR0TAQH/BAIwADAdBgNVHQ4EFgQUrBmnoMH7Zkle
g3G7AvYWDMupDV4wgaUGA1UdIwSBnTCBmoAUYh0PK5nzgScY6zKo51Y7WQ+iPOyh
d6R1MHMxCzAJBgNVBAYTAkZSMQwwCgYDVQQIEwNJREYxDjAMBgNVBAcTBVBhcmlz
MS8wLQYDVQQKEyZMb2NhbCBOT0RFLU9QQ1VBIENlcnRpZmljYXRlIEF1dGhvcml0
eTEVMBMGA1UEAxMMTm9kZU9QQ1VBLUNBggkAm+fo+Y2AFCgwYgYDVR0RBFswWYY0
dXJuOkFTRTA0NC1MVC5JTlRSQS5UVVQuRkk6Tm9kZU9QQ1VBLURpc2NvdmVyeVNl
cnZlcoIJbG9jYWxob3N0ghZBU0UwNDQtTFQuSU5UUkEuVFVULkZJMCwGCWCGSAGG
+EIBDQQfFh1PcGVuU1NMIEdlbmVyYXRlZCBDZXJ0aWZpY2F0ZTAOBgNVHQ8BAf8E
BAMCAvwwIAYDVR0lAQH/BBYwFAYIKwYBBQUHAwEGCCsGAQUFBwMCMA0GCSqGSIb3
DQEBCwUAA4IBAQAME9uPZBG2XBb0AsHK4I3Xa8pi6FxQjW6QqeWQdFKO+DAa9q4e
59AqL0r4Vu2CA567R67FpcmY/bjZUiZfK0u6OeQc4fsAde41yxU7Ps2O+p/AYDOX
NKBzFkwfZAWLNg8NylirYWfJg1O1r9Qn/uzIisE2kfKhUM5AzmzNlC12+RG/PuXZ
LJ8kD9UarbV3bZ3cGUzQ/p74N1FFSPEE3XgFFk9O5oRBJYV1rw2k7aGINmFYxisd
t5JH0h+fA9fmT2g7IqTnJdFi+BjNmK3a9jz/SBH4EylQfg+E3I83SIY+rYOUpptj
RgFLQcZudN9nA/SB7oQPWHmqTkPeXDnBcJCB
-----END CERTIFICATE-----
-----BEGIN CERTIFICATE-----
MIIE3TCCA8WgAwIBAgIJAJvn6PmNgBQoMA0GCSqGSIb3DQEBCwUAMHMxCzAJBgNV
BAYTAkZSMQwwCgYDVQQIEwNJREYxDjAMBgNVBAcTBVBhcmlzMS8wLQYDVQQKEyZM
b2NhbCBOT0RFLU9QQ1VBIENlcnRpZmljYXRlIEF1dGhvcml0eTEVMBMGA1UEAxMM
Tm9kZU9QQ1VBLUNBMB4XDTE3MDUxNzExNTMxN1oXDTI3MDUxNTExNTMxN1owczEL
MAkGA1UEBhMCRlIxDDAKBgNVBAgTA0lERjEOMAwGA1UEBxMFUGFyaXMxLzAtBgNV
BAoTJkxvY2FsIE5PREUtT1BDVUEgQ2VydGlmaWNhdGUgQXV0aG9yaXR5MRUwEwYD
VQQDEwxOb2RlT1BDVUEtQ0EwggEiMA0GCSqGSIb3DQEBAQUAA4IBDwAwggEKAoIB
AQDsfDk2ti4lC1tIdPV5ENwU2KlF7I4KTrHr7r10IiUkcSV1dquT0+8AnYdgi9ZZ
F53PvHn2AJQRR91P2+xx3V+rqfH6KuUXs69mpyHyhgNBu8hfDb3YoBU1lr0MPLF1
d2S8mSts4syCnBWvqRwjLjT6XMOA6m0VbVWX8Oy8aCaYiEiUt9WWPeC5bQ9BUCk+
xteltJC9/fFh8i1wDEg9/T9EOPCUqpghIfz4NSbZ379pXCjqrXUHXK8v3gOWahX2
b3NJgML7Q4h4ck8CEEe9IilwP3zsFE4ADySUL7tDwB7FZ3L9BhDvMT2dKICgzO+e
lig5qXfVqqltsjJpvYNUDWQhAgMBAAGjggFyMIIBbjAdBgNVHQ4EFgQUYh0PK5nz
gScY6zKo51Y7WQ+iPOwwgaUGA1UdIwSBnTCBmoAUYh0PK5nzgScY6zKo51Y7WQ+i
POyhd6R1MHMxCzAJBgNVBAYTAkZSMQwwCgYDVQQIEwNJREYxDjAMBgNVBAcTBVBh
cmlzMS8wLQYDVQQKEyZMb2NhbCBOT0RFLU9QQ1VBIENlcnRpZmljYXRlIEF1dGhv
cml0eTEVMBMGA1UEAxMMTm9kZU9QQ1VBLUNBggkAm+fo+Y2AFCgwDAYDVR0TBAUw
AwEB/zAOBgNVHQ8BAf8EBAMCAQYwVwYJYIZIAYb4QgENBEoWSENBIENlcnRpZmlj
YXRlIGdlbmVyYXRlZCBieSBOb2RlLU9QQ1VBIENlcnRpZmljYXRlIHV0aWxpdHkg
dXNpbmcgb3BlbnNzbDAuBgNVHR8EJzAlMCOgIaAfhh1odHRwOi8vbG9jYWxob3N0
Ojg5MDAvY3JsLnBlbTANBgkqhkiG9w0BAQsFAAOCAQEAPxpk1LsVJXcQ9l8GvEMZ
vibyHFdKyBBraKW7k4RGpL65DMb8ej1x1rtVHlMUbSRh5Dwr6cp4VXowQe1jhCmd
nqG1DkYZZ4RXaUDRP/mk4Hx2lZxXjf3gh6jMaom+ijdX8QEUTFfkHaR1/77b/oW9
c8u4v70OMAbaKSoMhWbvK1eMRFrFGg2KIs19E+Xim29+63S6iONxVbnigDnupDDB
/7km8yc7U8RaPYUpeYhp4gppUwdL0RRUmJ27rSd3gE6Zax42OdsD0WD8dGIHAVLw
HgauE7HfNiWsfe+PVEKINbAlXZpr3WqfJd4mgVx6JUms0hiBk6JvqKfH7mhh5Gsp
bw==
-----END CERTIFICATE-----
