Certificate Request:
    Data:
        Version: 0 (0x0)
        Subject: C=FR, O=NodeOPCUA, CN=NodeOPCUA
        Subject Public Key Info:
            Public Key Algorithm: rsaEncryption
                Public-Key: (2048 bit)
                Modulus:
                    00:ba:d5:48:47:70:7b:63:9c:49:1f:b4:9e:6b:3d:
                    7c:a1:af:88:cf:87:84:1b:04:39:98:ea:6f:5e:92:
                    10:2b:90:de:46:67:d0:f6:f2:1c:2a:99:34:ce:60:
                    40:95:b6:43:d4:4e:55:03:9a:2a:5d:0e:42:5f:7b:
                    94:3b:30:fa:f4:75:3c:56:1b:9c:5f:62:07:33:be:
                    37:70:5e:ed:19:d2:e7:c0:fc:21:29:fd:b7:53:cf:
                    11:5b:d0:66:1d:2a:7e:0c:0e:f8:6c:4d:2c:4d:2a:
                    47:11:e7:f2:00:b2:49:ad:3b:4c:05:e8:de:03:02:
                    23:05:42:43:b8:29:cd:2a:5f:cf:a0:e7:05:df:f4:
                    00:3f:3d:57:e0:76:0e:f4:fd:c9:9e:f4:1a:e8:56:
                    f6:ef:cd:a9:24:84:ee:e3:95:a1:03:df:c4:d0:7a:
                    ec:82:25:0a:38:3f:13:37:71:ab:2b:3a:35:2d:43:
                    e2:8f:fc:31:82:1a:53:f1:cd:42:17:51:99:17:30:
                    3c:74:6e:69:cb:8e:aa:37:6a:ec:c1:4b:91:d2:a4:
                    bc:e7:d6:4c:0e:ab:5b:da:09:76:44:f6:5e:5b:63:
                    bc:1b:22:51:ea:a9:47:3f:41:01:a7:71:49:6c:b5:
                    10:43:66:0f:5e:7f:43:32:11:ac:87:c5:15:2b:fc:
                    1b:fd
                Exponent: 65537 (0x10001)
        Attributes:
        Requested Extensions:
            X509v3 Basic Constraints: 
                CA:FALSE
            X509v3 Key Usage: critical
                Certificate Sign, CRL Sign
            X509v3 Subject Alternative Name: 
                URI:undefined
    Signature Algorithm: sha256WithRSAEncryption
         3a:ab:a7:6c:c9:d9:b0:5a:a7:96:d4:66:f9:6a:ac:21:a8:56:
         ee:5a:d2:6f:75:d0:29:06:83:a1:f3:4e:2e:dd:d1:9c:bb:80:
         21:70:44:6e:e3:fb:89:5e:5b:6b:59:98:a3:01:c2:3c:42:77:
         9c:2b:a1:f5:f9:9b:e0:3d:58:85:f1:e1:52:c9:9f:b2:ec:6c:
         34:3e:74:c1:02:26:ce:00:d7:0b:f1:62:ab:a9:f1:c3:09:c9:
         60:a0:27:f3:c3:79:16:8f:64:4b:d0:95:31:3b:de:ed:94:22:
         8b:8a:c7:cb:95:f9:9b:4e:b3:e2:6f:d2:1d:8b:5f:4a:99:f8:
         c4:d1:29:6a:81:66:21:c6:6f:d6:1a:52:ce:c6:86:68:95:16:
         84:fb:b8:88:fe:29:dd:48:de:2f:0b:e4:39:2d:c7:40:eb:75:
         c6:f0:d2:4d:60:bd:0a:41:66:fa:e4:7e:95:66:f7:19:60:56:
         70:84:b0:70:09:bc:02:9a:2d:a0:55:b2:01:8d:50:cc:59:b9:
         80:02:bb:e4:cb:36:aa:c0:d1:8b:fe:24:a1:2a:ba:e1:9a:3e:
         29:aa:60:93:73:0c:df:2b:e0:bb:19:44:7b:5f:c1:67:7e:30:
         28:c0:35:b7:79:a1:e9:f5:a6:31:9e:37:c1:05:89:83:ce:ae:
         cd:56:a1:8c
-----BEGIN CERTIFICATE REQUEST-----
MIICvDCCAaQCAQAwNTELMAkGA1UEBhMCRlIxEjAQBgNVBAoMCU5vZGVPUENVQTES
MBAGA1UEAwwJTm9kZU9QQ1VBMIIBIjANBgkqhkiG9w0BAQEFAAOCAQ8AMIIBCgKC
AQEAutVIR3B7Y5xJH7Seaz18oa+Iz4eEGwQ5mOpvXpIQK5DeRmfQ9vIcKpk0zmBA
lbZD1E5VA5oqXQ5CX3uUOzD69HU8VhucX2IHM743cF7tGdLnwPwhKf23U88RW9Bm
HSp+DA74bE0sTSpHEefyALJJrTtMBejeAwIjBUJDuCnNKl/PoOcF3/QAPz1X4HYO
9P3JnvQa6Fb2782pJITu45WhA9/E0HrsgiUKOD8TN3GrKzo1LUPij/wxghpT8c1C
F1GZFzA8dG5py46qN2rswUuR0qS859ZMDqtb2gl2RPZeW2O8GyJR6qlHP0EBp3FJ
bLUQQ2YPXn9DMhGsh8UVK/wb/QIDAQABoEIwQAYJKoZIhvcNAQkOMTMwMTAJBgNV
HRMEAjAAMA4GA1UdDwEB/wQEAwIBBjAUBgNVHREEDTALhgl1bmRlZmluZWQwDQYJ
KoZIhvcNAQELBQADggEBADqrp2zJ2bBap5bUZvlqrCGoVu5a0m910CkGg6HzTi7d
0Zy7gCFwRG7j+4leW2tZmKMBwjxCd5wrofX5m+A9WIXx4VLJn7LsbDQ+dMECJs4A
1wvxYqup8cMJyWCgJ/PDeRaPZEvQlTE73u2UIouKx8uV+ZtOs+Jv0h2LX0qZ+MTR
KWqBZiHGb9YaUs7GhmiVFoT7uIj+Kd1I3i8L5Dktx0Drdcbw0k1gvQpBZvrkfpVm
9xlgVnCEsHAJvAKaLaBVsgGNUMxZuYACu+TLNqrA0Yv+JKEquuGaPimqYJNzDN8r
4LsZRHtfwWd+MCjANbd5oen1pjGeN8EFiYPOrs1WoYw=
-----END CERTIFICATE REQUEST-----
