Certificate Request:
    Data:
        Version: 0 (0x0)
        Subject: C=FR, O=NodeOPCUA, CN=NodeOPCUA
        Subject Public Key Info:
            Public Key Algorithm: rsaEncryption
                Public-Key: (1024 bit)
                Modulus:
                    00:c9:1d:94:c0:77:d7:87:3e:9d:b6:05:65:f7:40:
                    26:e4:d0:80:56:f0:79:44:e4:aa:70:02:e8:41:cf:
                    f5:2e:ab:44:6b:3c:43:09:0b:14:d5:ac:cc:5c:09:
                    28:ab:65:f7:b4:a4:d4:74:c0:ec:c5:3e:0c:1f:71:
                    57:23:21:fb:2b:0c:f7:a6:e2:bf:a5:8d:c7:d9:8a:
                    91:56:5c:b4:a1:66:9b:af:99:70:05:50:6f:32:89:
                    49:c7:7c:57:bf:37:ec:95:9e:28:37:da:8c:78:72:
                    f3:22:36:12:b1:58:d3:a9:2f:d9:c7:07:56:54:bb:
                    f8:32:5a:7c:41:55:a0:70:eb
                Exponent: 65537 (0x10001)
        Attributes:
        Requested Extensions:
            X509v3 Basic Constraints: 
                CA:FALSE
            X509v3 Key Usage: critical
                Certificate Sign, CRL Sign
            X509v3 Subject Alternative Name: 
                URI:undefined
    Signature Algorithm: sha256WithRSAEncryption
         66:cb:30:80:6f:6e:4c:bf:b3:96:03:bb:16:b7:20:dc:85:c2:
         a8:48:7e:5a:48:ef:9a:bd:19:18:b0:58:5b:c4:99:55:42:85:
         a8:6a:4e:4a:d4:66:96:73:db:6e:b7:4a:ad:0a:5d:97:ea:58:
         da:7c:a5:7e:49:7c:ea:6a:ec:5a:05:e9:01:cb:d9:ea:ca:ce:
         b9:8e:55:8d:ab:07:fa:47:ef:00:8a:2a:f1:df:42:e3:14:64:
         68:18:30:61:e8:d9:30:80:7c:7b:01:8b:ab:c2:59:95:9f:f5:
         5f:66:43:d4:93:0e:7c:61:26:92:58:10:0a:b7:2f:01:bf:19:
         95:31
-----BEGIN CERTIFICATE REQUEST-----
MIIBtzCCASACAQAwNTELMAkGA1UEBhMCRlIxEjAQBgNVBAoMCU5vZGVPUENVQTES
MBAGA1UEAwwJTm9kZU9QQ1VBMIGfMA0GCSqGSIb3DQEBAQUAA4GNADCBiQKBgQDJ
HZTAd9eHPp22BWX3QCbk0IBW8HlE5KpwAuhBz/Uuq0RrPEMJCxTVrMxcCSirZfe0
pNR0wOzFPgwfcVcjIfsrDPem4r+ljcfZipFWXLShZpuvmXAFUG8yiUnHfFe/N+yV
nig32ox4cvMiNhKxWNOpL9nHB1ZUu/gyWnxBVaBw6wIDAQABoEIwQAYJKoZIhvcN
AQkOMTMwMTAJBgNVHRMEAjAAMA4GA1UdDwEB/wQEAwIBBjAUBgNVHREEDTALhgl1
bmRlZmluZWQwDQYJKoZIhvcNAQELBQADgYEAZsswgG9uTL+zlgO7Frcg3IXCqEh+
Wkjvmr0ZGLBYW8SZVUKFqGpOStRmlnPbbrdKrQpdl+pY2nylfkl86mrsWgXpAcvZ
6srOuY5VjasH+kfvAIoq8d9C4xRkaBgwYejZMIB8ewGLq8JZlZ/1X2ZD1JMOfGEm
klgQCrcvAb8ZlTE=
-----END CERTIFICATE REQUEST-----
