Certificate Request:
    Data:
        Version: 0 (0x0)
        Subject: C=FR, O=NodeOPCUA, CN=NodeOPCUA
        Subject Public Key Info:
            Public Key Algorithm: rsaEncryption
                Public-Key: (2048 bit)
                Modulus:
                    00:c9:33:68:61:cf:0f:66:59:87:b6:90:c4:d3:7d:
                    11:0b:0b:9b:ea:ba:20:a4:9f:f2:cd:c8:2b:f9:da:
                    67:d7:e8:38:80:cc:ac:80:31:9e:1a:63:ad:85:ed:
                    5d:3e:7f:7e:14:b9:63:b3:bb:67:0e:83:a1:cc:8a:
                    91:83:fe:02:71:74:33:fa:bf:3d:c0:7e:f8:96:87:
                    e0:7a:c3:21:72:95:83:58:95:98:90:da:e3:a7:58:
                    b1:4e:cd:d2:c4:41:79:34:22:c4:fa:03:fa:01:54:
                    83:4a:3c:1e:17:c8:56:1b:fe:f5:7b:04:f0:b9:8d:
                    3e:f7:11:9f:f9:a8:92:29:48:fb:c2:e8:95:fd:a9:
                    b6:75:ef:76:14:8d:29:82:a7:8f:a0:e4:3d:e3:0c:
                    6d:8f:eb:c7:56:2e:cd:c5:7d:91:27:ba:8d:a6:45:
                    cd:60:40:e1:5e:c4:80:f5:e0:a6:1b:ab:d7:58:df:
                    db:2d:cd:f0:d6:60:de:79:ae:5e:7f:f4:d2:9e:79:
                    62:0a:1e:0d:2d:7d:f2:36:7b:5d:3a:17:26:4e:ab:
                    1b:ba:72:fe:c4:52:20:6b:74:da:53:9f:1a:55:09:
                    0c:e6:ed:ee:e5:36:be:4c:a0:5d:b7:5d:ae:51:50:
                    93:0f:3c:e9:fe:74:f4:eb:e9:0f:e7:4e:e8:c7:8f:
                    0f:89
                Exponent: 65537 (0x10001)
        Attributes:
        Requested Extensions:
            X509v3 Basic Constraints: 
                CA:FALSE
            X509v3 Key Usage: critical
                Certificate Sign, CRL Sign
            X509v3 Subject Alternative Name: 
                URI:undefined
    Signature Algorithm: sha256WithRSAEncryption
         03:14:a8:ce:8d:28:99:7f:c6:d0:52:9e:37:81:d5:f8:e5:04:
         0e:a8:32:3b:5f:1f:46:6a:06:78:b2:01:ab:2d:c8:29:06:10:
         b0:ef:60:af:0f:a3:25:9e:24:20:9a:ee:0e:cb:c7:5b:86:7e:
         a2:09:3e:e2:60:1e:e2:0a:fd:6f:8a:b1:ac:f4:01:12:08:c6:
         3b:09:7c:9e:80:a4:f3:eb:70:c8:f1:e6:58:46:81:72:74:65:
         7b:a9:a7:79:4d:26:56:f9:11:95:b2:57:90:45:cc:27:a7:9d:
         fb:99:be:d8:0f:bd:06:52:c0:64:15:ba:53:3c:e2:34:9a:6d:
         7c:dd:82:d0:1e:12:c3:50:f6:0b:e2:09:00:bc:2a:fe:2c:33:
         83:50:9b:52:04:b4:68:d5:96:3b:6e:15:96:0f:25:5e:af:9a:
         90:ac:55:c2:08:7b:f0:37:43:ec:66:bd:6d:19:99:ae:94:de:
         81:bf:95:e7:b5:ba:ce:40:9e:0b:c5:01:d1:ec:39:b1:48:b3:
         0c:70:39:42:c8:2c:28:ea:ca:d2:74:d7:b1:54:09:a3:e1:f4:
         d6:69:73:4a:63:d2:cd:9c:61:43:05:d6:62:7d:fe:b3:fa:5b:
         63:59:4b:9c:e4:5c:ad:92:b8:ee:b3:bd:a6:b8:0e:9a:16:17:
         0f:e1:65:e9
-----BEGIN CERTIFICATE REQUEST-----
MIICvDCCAaQCAQAwNTELMAkGA1UEBhMCRlIxEjAQBgNVBAoMCU5vZGVPUENVQTES
MBAGA1UEAwwJTm9kZU9QQ1VBMIIBIjANBgkqhkiG9w0BAQEFAAOCAQ8AMIIBCgKC
AQEAyTNoYc8PZlmHtpDE030RCwub6rogpJ/yzcgr+dpn1+g4gMysgDGeGmOthe1d
Pn9+FLljs7tnDoOhzIqRg/4CcXQz+r89wH74lofgesMhcpWDWJWYkNrjp1ixTs3S
xEF5NCLE+gP6AVSDSjweF8hWG/71ewTwuY0+9xGf+aiSKUj7wuiV/am2de92FI0p
gqePoOQ94wxtj+vHVi7NxX2RJ7qNpkXNYEDhXsSA9eCmG6vXWN/bLc3w1mDeea5e
f/TSnnliCh4NLX3yNntdOhcmTqsbunL+xFIga3TaU58aVQkM5u3u5Ta+TKBdt12u
UVCTDzzp/nT06+kP507ox48PiQIDAQABoEIwQAYJKoZIhvcNAQkOMTMwMTAJBgNV
HRMEAjAAMA4GA1UdDwEB/wQEAwIBBjAUBgNVHREEDTALhgl1bmRlZmluZWQwDQYJ
KoZIhvcNAQELBQADggEBAAMUqM6NKJl/xtBSnjeB1fjlBA6oMjtfH0ZqBniyAast
yCkGELDvYK8PoyWeJCCa7g7Lx1uGfqIJPuJgHuIK/W+Ksaz0ARIIxjsJfJ6ApPPr
cMjx5lhGgXJ0ZXupp3lNJlb5EZWyV5BFzCennfuZvtgPvQZSwGQVulM84jSabXzd
gtAeEsNQ9gviCQC8Kv4sM4NQm1IEtGjVljtuFZYPJV6vmpCsVcIIe/A3Q+xmvW0Z
ma6U3oG/lee1us5AngvFAdHsObFIswxwOULILCjqytJ017FUCaPh9NZpc0pj0s2c
YUMF1mJ9/rP6W2NZS5zkXK2SuO6zvaa4DpoWFw/hZek=
-----END CERTIFICATE REQUEST-----
