Certificate Request:
    Data:
        Version: 0 (0x0)
        Subject: C=FR, ST=IDF, L=Paris, O=Local NODE-OPCUA Certificate Authority, CN=NodeOPCUA-CA
        Subject Public Key Info:
            Public Key Algorithm: rsaEncryption
                Public-Key: (2048 bit)
                Modulus:
                    00:ec:7c:39:36:b6:2e:25:0b:5b:48:74:f5:79:10:
                    dc:14:d8:a9:45:ec:8e:0a:4e:b1:eb:ee:bd:74:22:
                    25:24:71:25:75:76:ab:93:d3:ef:00:9d:87:60:8b:
                    d6:59:17:9d:cf:bc:79:f6:00:94:11:47:dd:4f:db:
                    ec:71:dd:5f:ab:a9:f1:fa:2a:e5:17:b3:af:66:a7:
                    21:f2:86:03:41:bb:c8:5f:0d:bd:d8:a0:15:35:96:
                    bd:0c:3c:b1:75:77:64:bc:99:2b:6c:e2:cc:82:9c:
                    15:af:a9:1c:23:2e:34:fa:5c:c3:80:ea:6d:15:6d:
                    55:97:f0:ec:bc:68:26:98:88:48:94:b7:d5:96:3d:
                    e0:b9:6d:0f:41:50:29:3e:c6:d7:a5:b4:90:bd:fd:
                    f1:61:f2:2d:70:0c:48:3d:fd:3f:44:38:f0:94:aa:
                    98:21:21:fc:f8:35:26:d9:df:bf:69:5c:28:ea:ad:
                    75:07:5c:af:2f:de:03:96:6a:15:f6:6f:73:49:80:
                    c2:fb:43:88:78:72:4f:02:10:47:bd:22:29:70:3f:
                    7c:ec:14:4e:00:0f:24:94:2f:bb:43:c0:1e:c5:67:
                    72:fd:06:10:ef:31:3d:9d:28:80:a0:cc:ef:9e:96:
                    28:39:a9:77:d5:aa:a9:6d:b2:32:69:bd:83:54:0d:
                    64:21
                Exponent: 65537 (0x10001)
        Attributes:
        Requested Extensions:
            X509v3 Basic Constraints: critical
                CA:FALSE
            X509v3 Key Usage: 
                Digital Signature, Non Repudiation, Key Encipherment, Data Encipherment, Key Agreement
            X509v3 Subject Alternative Name: 
                URI:undefined
            Netscape Comment: 
                CA Generated by Node-OPCUA Certificate utility using openssl
    Signature Algorithm: sha256WithRSAEncryption
         ea:61:dc:d9:7b:68:89:2e:66:58:ee:ed:e3:59:10:b5:6e:9f:
         9f:63:f0:3e:a0:3b:5a:de:c3:9d:aa:1e:d2:ab:9a:00:ea:9f:
         dc:47:13:df:6f:34:fe:79:1c:47:4f:b2:1f:1a:2c:f6:0a:ef:
         30:6c:7c:9e:ab:91:27:a5:5e:65:d6:ba:05:e9:53:20:f6:bd:
         0c:59:99:28:47:01:00:ae:fd:03:ac:8c:7a:5d:91:a6:d3:b3:
         41:2c:b2:49:c7:1d:08:b1:74:67:02:d4:85:44:94:46:4e:d8:
         f3:ed:38:ac:f9:a9:71:67:72:4b:f6:45:7b:eb:fd:cc:ce:e5:
         78:0c:16:60:08:d6:75:d1:92:ba:b2:af:31:09:62:90:cd:16:
         fe:c6:87:a2:36:3e:a3:39:bf:53:5f:83:6b:55:8b:8c:6a:e9:
         e5:41:dd:4a:56:23:d8:62:92:7a:fa:6a:21:f1:5b:88:b0:04:
         42:cc:e1:41:e2:bb:ef:04:8e:19:3a:8f:61:24:ca:2c:67:cc:
         8f:2a:74:b0:b3:5a:07:8a:a3:f8:27:64:94:40:a4:e9:25:20:
         b9:9d:d3:de:0d:c7:96:cc:8e:d2:28:1a:ab:a8:52:dd:b3:a6:
         fc:15:1b:79:54:fe:3c:4b:ed:b7:ce:c3:a5:78:ac:73:18:46:
         ef:79:eb:78
-----BEGIN CERTIFICATE REQUEST-----
MIIDSjCCAjICAQAwczELMAkGA1UEBhMCRlIxDDAKBgNVBAgTA0lERjEOMAwGA1UE
BxMFUGFyaXMxLzAtBgNVBAoTJkxvY2FsIE5PREUtT1BDVUEgQ2VydGlmaWNhdGUg
QXV0aG9yaXR5MRUwEwYDVQQDEwxOb2RlT1BDVUEtQ0EwggEiMA0GCSqGSIb3DQEB
AQUAA4IBDwAwggEKAoIBAQDsfDk2ti4lC1tIdPV5ENwU2KlF7I4KTrHr7r10IiUk
cSV1dquT0+8AnYdgi9ZZF53PvHn2AJQRR91P2+xx3V+rqfH6KuUXs69mpyHyhgNB
u8hfDb3YoBU1lr0MPLF1d2S8mSts4syCnBWvqRwjLjT6XMOA6m0VbVWX8Oy8aCaY
iEiUt9WWPeC5bQ9BUCk+xteltJC9/fFh8i1wDEg9/T9EOPCUqpghIfz4NSbZ379p
XCjqrXUHXK8v3gOWahX2b3NJgML7Q4h4ck8CEEe9IilwP3zsFE4ADySUL7tDwB7F
Z3L9BhDvMT2dKICgzO+elig5qXfVqqltsjJpvYNUDWQhAgMBAAGggZEwgY4GCSqG
SIb3DQEJDjGBgDB+MAwGA1UdEwEB/wQCMAAwCwYDVR0PBAQDAgP4MBQGA1UdEQQN
MAuGCXVuZGVmaW5lZDBLBglghkgBhvhCAQ0EPhY8Q0EgR2VuZXJhdGVkIGJ5IE5v
ZGUtT1BDVUEgQ2VydGlmaWNhdGUgdXRpbGl0eSB1c2luZyBvcGVuc3NsMA0GCSqG
SIb3DQEBCwUAA4IBAQDqYdzZe2iJLmZY7u3jWRC1bp+fY/A+oDta3sOdqh7Sq5oA
6p/cRxPfbzT+eRxHT7IfGiz2Cu8wbHyeq5EnpV5l1roF6VMg9r0MWZkoRwEArv0D
rIx6XZGm07NBLLJJxx0IsXRnAtSFRJRGTtjz7Tis+alxZ3JL9kV76/3MzuV4DBZg
CNZ10ZK6sq8xCWKQzRb+xoeiNj6jOb9TX4NrVYuMaunlQd1KViPYYpJ6+moh8VuI
sARCzOFB4rvvBI4ZOo9hJMosZ8yPKnSws1oHiqP4J2SUQKTpJSC5ndPeDceWzI7S
KBqrqFLds6b8FRt5VP48S+23zsOleKxzGEbveet4
-----END CERTIFICATE REQUEST-----
