Certificate:
    Data:
        Version: 3 (0x2)
        Serial Number: 4099 (0x1003)
    Signature Algorithm: sha256WithRSAEncryption
        Issuer: O=NodeOPCUA, CN=NodeOPCUA
        Validity
            Not Before: May 16 11:53:10 2017 GMT
            Not After : May 16 11:53:10 2018 GMT
        Subject: O=NodeOPCUA, CN=NodeOPCUA
        Subject Public Key Info:
            Public Key Algorithm: rsaEncryption
                Public-Key: (2048 bit)
                Modulus:
                    00:c3:79:bb:a2:7d:95:87:29:ef:b6:2c:0a:77:d8:
                    0a:93:5e:b7:e2:c6:76:35:7c:d8:63:f6:cf:e9:e3:
                    1d:fb:55:25:1d:92:11:46:50:07:96:34:a9:45:85:
                    4f:03:b0:c0:e0:a8:a9:3c:b0:8a:db:6c:a1:18:5c:
                    dd:f5:4a:92:14:77:59:22:15:62:86:1a:ae:6a:f7:
                    5c:a9:2d:ab:04:8d:01:b6:12:8a:0e:d8:18:e0:9e:
                    0e:f7:76:b7:7d:50:5d:ad:c0:ef:34:0c:ce:a5:76:
                    d7:8d:24:23:96:85:ec:4e:37:23:0e:5e:96:9d:7a:
                    b9:d5:0d:ec:33:1d:8e:9b:3d:16:19:18:03:7a:57:
                    16:25:9c:e6:1f:33:69:ad:aa:6d:ed:4c:06:60:bf:
                    4a:b6:5a:3f:0e:ce:b4:65:79:77:11:cc:9e:2b:42:
                    e4:49:cc:50:bc:88:60:64:2e:fc:d4:3d:db:cf:2f:
                    3f:09:fe:81:5a:10:b0:e9:c3:c5:22:63:39:55:ef:
                    7d:21:86:1b:42:b5:07:e4:32:60:f1:df:86:c3:49:
                    fa:94:32:32:c1:24:4c:b8:50:56:66:a1:da:ac:66:
                    c6:c7:80:89:53:52:6b:c1:76:30:eb:bb:61:50:f5:
                    e6:c1:ce:2b:9b:5f:e3:e5:75:4b:e7:e5:f1:8a:e4:
                    b6:83
                Exponent: 65537 (0x10001)
        X509v3 extensions:
            X509v3 Basic Constraints: critical
                CA:FALSE
            X509v3 Subject Key Identifier: 
                B3:CF:64:A3:3E:FC:DC:25:D1:02:C1:C7:D3:F5:63:90:BC:BA:1C:39
            X509v3 Authority Key Identifier: 
                keyid:B3:CF:64:A3:3E:FC:DC:25:D1:02:C1:C7:D3:F5:63:90:BC:BA:1C:39
                DirName:/O=NodeOPCUA/CN=NodeOPCUA
                serial:10:03

            X509v3 Subject Alternative Name: 
                URI:urn:ASE044-LT.INTRA.TUT.FI:NodeOPCUA-Client, DNS:localhost, DNS:ASE044-LT.INTRA.TUT.FI
            Netscape Comment: 
                OpenSSL Generated Certificate
            X509v3 Key Usage: critical
                Digital Signature, Non Repudiation, Key Encipherment, Data Encipherment, Key Agreement, Certificate Sign
            X509v3 Extended Key Usage: critical
                TLS Web Server Authentication, TLS Web Client Authentication
    Signature Algorithm: sha256WithRSAEncryption
         bb:f7:b0:e2:5d:0b:21:ba:16:06:de:06:ff:74:d6:49:14:6e:
         bd:f3:24:12:7a:e7:59:4a:bf:fc:00:7a:41:13:b1:47:49:25:
         63:2b:f3:e4:6b:dd:31:4c:6d:6f:0b:11:b0:8e:43:20:b6:42:
         f6:81:ce:2c:6c:9f:83:b0:8d:90:32:81:05:7c:b5:16:92:2f:
         c9:88:10:f7:4f:3d:e4:f9:21:c8:91:d5:c3:74:8c:2e:56:5f:
         60:5e:6f:3f:f3:2d:c3:0d:3e:a0:83:f0:92:ca:21:27:94:40:
         8b:a1:39:b4:99:ae:b1:f7:00:db:5c:2d:e0:75:c0:e5:a9:78:
         d1:c5:55:51:64:84:36:82:1d:4f:4e:dc:c5:c1:0d:9c:f3:af:
         29:74:8b:9b:07:67:fb:d3:00:1f:6d:8e:1d:88:39:72:63:ed:
         cd:04:3f:ea:7a:52:a9:02:3b:42:0d:d6:ea:05:0e:cf:e8:8f:
         41:36:8c:93:62:e2:13:4d:d4:ef:a1:27:dd:ee:62:2b:31:d5:
         7e:54:76:d0:44:4b:ae:41:d3:64:1e:2e:01:c7:7a:b7:56:8b:
         94:0f:5e:83:d8:a2:f6:9a:c4:bd:a1:43:5a:3f:8b:92:67:03:
         d9:39:a0:08:e2:8e:17:61:af:91:2f:24:e6:8f:ac:82:9f:9e:
         bc:25:dc:13
-----BEGIN CERTIFICATE-----
MIIEETCCAvmgAwIBAgICEAMwDQYJKoZIhvcNAQELBQAwKDESMBAGA1UEChMJTm9k
ZU9QQ1VBMRIwEAYDVQQDEwlOb2RlT1BDVUEwIhgPMjAxNzA1MTYxMTUzMTBaGA8y
MDE4MDUxNjExNTMxMFowKDESMBAGA1UEChMJTm9kZU9QQ1VBMRIwEAYDVQQDEwlO
b2RlT1BDVUEwggEiMA0GCSqGSIb3DQEBAQUAA4IBDwAwggEKAoIBAQDDebuifZWH
Ke+2LAp32AqTXrfixnY1fNhj9s/p4x37VSUdkhFGUAeWNKlFhU8DsMDgqKk8sIrb
bKEYXN31SpIUd1kiFWKGGq5q91ypLasEjQG2EooO2Bjgng73drd9UF2twO80DM6l
dteNJCOWhexONyMOXpadernVDewzHY6bPRYZGAN6VxYlnOYfM2mtqm3tTAZgv0q2
Wj8OzrRleXcRzJ4rQuRJzFC8iGBkLvzUPdvPLz8J/oFaELDpw8UiYzlV730hhhtC
tQfkMmDx34bDSfqUMjLBJEy4UFZmodqsZsbHgIlTUmvBdjDru2FQ9ebBziubX+Pl
dUvn5fGK5LaDAgMBAAGjggE/MIIBOzAMBgNVHRMBAf8EAjAAMB0GA1UdDgQWBBSz
z2SjPvzcJdECwcfT9WOQvLocOTBRBgNVHSMESjBIgBSzz2SjPvzcJdECwcfT9WOQ
vLocOaEspCowKDESMBAGA1UEChMJTm9kZU9QQ1VBMRIwEAYDVQQDEwlOb2RlT1BD
VUGCAhADMFkGA1UdEQRSMFCGK3VybjpBU0UwNDQtTFQuSU5UUkEuVFVULkZJOk5v
ZGVPUENVQS1DbGllbnSCCWxvY2FsaG9zdIIWQVNFMDQ0LUxULklOVFJBLlRVVC5G
STAsBglghkgBhvhCAQ0EHxYdT3BlblNTTCBHZW5lcmF0ZWQgQ2VydGlmaWNhdGUw
DgYDVR0PAQH/BAQDAgL8MCAGA1UdJQEB/wQWMBQGCCsGAQUFBwMBBggrBgEFBQcD
AjANBgkqhkiG9w0BAQsFAAOCAQEAu/ew4l0LIboWBt4G/3TWSRRuvfMkEnrnWUq/
/AB6QROxR0klYyvz5GvdMUxtbwsRsI5DILZC9oHOLGyfg7CNkDKBBXy1FpIvyYgQ
90895PkhyJHVw3SMLlZfYF5vP/Mtww0+oIPwksohJ5RAi6E5tJmusfcA21wt4HXA
5al40cVVUWSENoIdT07cxcENnPOvKXSLmwdn+9MAH22OHYg5cmPtzQQ/6npSqQI7
Qg3W6gUOz+iPQTaMk2LiE03U76En3e5iKzHVflR20ERLrkHTZB4uAcd6t1aLlA9e
g9ii9prEvaFDWj+LkmcD2TmgCOKOF2GvkS8k5o+sgp+evCXcEw==
-----END CERTIFICATE-----
