Certificate:
    Data:
        Version: 3 (0x2)
        Serial Number: 4100 (0x1004)
    Signature Algorithm: sha256WithRSAEncryption
        Issuer: C=FR, ST=IDF, L=Paris, O=Local NODE-OPCUA Certificate Authority, CN=NodeOPCUA-CA
        Validity
            Not Before: May 16 11:53:10 2017 GMT
            Not After : May 16 11:53:10 2018 GMT
        Subject: C=FR, O=NodeOPCUA, CN=NodeOPCUA
        Subject Public Key Info:
            Public Key Algorithm: rsaEncryption
                Public-Key: (1024 bit)
                Modulus:
                    00:c9:1d:94:c0:77:d7:87:3e:9d:b6:05:65:f7:40:
                    26:e4:d0:80:56:f0:79:44:e4:aa:70:02:e8:41:cf:
                    f5:2e:ab:44:6b:3c:43:09:0b:14:d5:ac:cc:5c:09:
                    28:ab:65:f7:b4:a4:d4:74:c0:ec:c5:3e:0c:1f:71:
                    57:23:21:fb:2b:0c:f7:a6:e2:bf:a5:8d:c7:d9:8a:
                    91:56:5c:b4:a1:66:9b:af:99:70:05:50:6f:32:89:
                    49:c7:7c:57:bf:37:ec:95:9e:28:37:da:8c:78:72:
                    f3:22:36:12:b1:58:d3:a9:2f:d9:c7:07:56:54:bb:
                    f8:32:5a:7c:41:55:a0:70:eb
                Exponent: 65537 (0x10001)
        X509v3 extensions:
            X509v3 Basic Constraints: critical
                CA:FALSE
            X509v3 Subject Key Identifier: 
                A7:F1:6C:05:34:9C:D4:5D:74:18:F9:44:DA:91:69:D1:4F:41:50:5A
            X509v3 Authority Key Identifier: 
                keyid:62:1D:0F:2B:99:F3:81:27:18:EB:32:A8:E7:56:3B:59:0F:A2:3C:EC
                DirName:/C=FR/ST=IDF/L=Paris/O=Local NODE-OPCUA Certificate Authority/CN=NodeOPCUA-CA
                serial:9B:E7:E8:F9:8D:80:14:28

            X509v3 Subject Alternative Name: 
                URI:urn:ASE044-LT.INTRA.TUT.FI:NodeOPCUA-Server, DNS:localhost, DNS:ASE044-LT.INTRA.TUT.FI
            Netscape Comment: 
                OpenSSL Generated Certificate
            X509v3 Key Usage: critical
                Digital Signature, Non Repudiation, Key Encipherment, Data Encipherment, Key Agreement, Certificate Sign
            X509v3 Extended Key Usage: critical
                TLS Web Server Authentication, TLS Web Client Authentication
    Signature Algorithm: sha256WithRSAEncryption
         ce:64:2b:ff:81:45:fc:96:cc:32:14:c5:9e:b3:e0:5e:2c:84:
         5c:5e:b6:44:0b:0e:65:3b:2b:d4:fc:61:1b:48:87:67:f1:b7:
         c3:2f:54:ea:97:25:2a:60:c7:62:fb:0c:39:f4:e0:fa:9b:7a:
         1d:cf:25:76:51:42:e8:95:b8:c8:e8:7f:9b:a3:86:0a:04:07:
         04:04:d1:ec:24:6f:77:b3:48:fd:ed:86:15:61:d9:18:81:b4:
         c4:aa:2c:b9:6d:ab:f8:43:84:bd:5e:58:5c:52:6b:51:26:02:
         e8:6d:b4:22:29:24:fd:2e:67:87:f0:8b:b6:cd:c1:56:7d:f3:
         c3:fd:d3:5e:c8:05:57:78:8e:b8:2c:7b:cc:16:ca:db:8f:61:
         b1:45:51:7c:ff:78:4c:ec:36:5b:96:16:7a:9c:ad:d8:d9:14:
         50:4f:0c:9d:df:f0:9a:6b:6a:35:b6:bc:58:7e:4b:63:b6:b0:
         97:20:db:65:1c:b3:44:23:b6:9f:6a:5a:64:f9:a0:1a:54:ca:
         7e:3f:14:4a:e8:9f:16:2a:89:30:27:f4:d0:3c:0a:37:c6:82:
         8e:c2:d4:da:01:bb:59:0f:e7:df:7e:9d:11:d7:fc:89:9b:ca:
         08:24:87:f9:d8:ef:42:18:9b:71:62:6e:79:1f:14:cb:e2:fc:
         7d:56:a4:cc
-----BEGIN CERTIFICATE-----
MIIEOjCCAyKgAwIBAgICEAQwDQYJKoZIhvcNAQELBQAwczELMAkGA1UEBhMCRlIx
DDAKBgNVBAgTA0lERjEOMAwGA1UEBxMFUGFyaXMxLzAtBgNVBAoTJkxvY2FsIE5P
REUtT1BDVUEgQ2VydGlmaWNhdGUgQXV0aG9yaXR5MRUwEwYDVQQDEwxOb2RlT1BD
VUEtQ0EwIhgPMjAxNzA1MTYxMTUzMTBaGA8yMDE4MDUxNjExNTMxMFowNTELMAkG
A1UEBhMCRlIxEjAQBgNVBAoMCU5vZGVPUENVQTESMBAGA1UEAwwJTm9kZU9QQ1VB
MIGfMA0GCSqGSIb3DQEBAQUAA4GNADCBiQKBgQDJHZTAd9eHPp22BWX3QCbk0IBW
8HlE5KpwAuhBz/Uuq0RrPEMJCxTVrMxcCSirZfe0pNR0wOzFPgwfcVcjIfsrDPem
4r+ljcfZipFWXLShZpuvmXAFUG8yiUnHfFe/N+yVnig32ox4cvMiNhKxWNOpL9nH
B1ZUu/gyWnxBVaBw6wIDAQABo4IBlDCCAZAwDAYDVR0TAQH/BAIwADAdBgNVHQ4E
FgQUp/FsBTSc1F10GPlE2pFp0U9BUFowgaUGA1UdIwSBnTCBmoAUYh0PK5nzgScY
6zKo51Y7WQ+iPOyhd6R1MHMxCzAJBgNVBAYTAkZSMQwwCgYDVQQIEwNJREYxDjAM
BgNVBAcTBVBhcmlzMS8wLQYDVQQKEyZMb2NhbCBOT0RFLU9QQ1VBIENlcnRpZmlj
YXRlIEF1dGhvcml0eTEVMBMGA1UEAxMMTm9kZU9QQ1VBLUNBggkAm+fo+Y2AFCgw
WQYDVR0RBFIwUIYrdXJuOkFTRTA0NC1MVC5JTlRSQS5UVVQuRkk6Tm9kZU9QQ1VB
LVNlcnZlcoIJbG9jYWxob3N0ghZBU0UwNDQtTFQuSU5UUkEuVFVULkZJMCwGCWCG
SAGG+EIBDQQfFh1PcGVuU1NMIEdlbmVyYXRlZCBDZXJ0aWZpY2F0ZTAOBgNVHQ8B
Af8EBAMCAvwwIAYDVR0lAQH/BBYwFAYIKwYBBQUHAwEGCCsGAQUFBwMCMA0GCSqG
SIb3DQEBCwUAA4IBAQDOZCv/gUX8lswyFMWes+BeLIRcXrZECw5lOyvU/GEbSIdn
8bfDL1TqlyUqYMdi+ww59OD6m3odzyV2UULolbjI6H+bo4YKBAcEBNHsJG93s0j9
7YYVYdkYgbTEqiy5bav4Q4S9XlhcUmtRJgLobbQiKST9LmeH8Iu2zcFWffPD/dNe
yAVXeI64LHvMFsrbj2GxRVF8/3hM7DZblhZ6nK3Y2RRQTwyd3/Caa2o1trxYfktj
trCXINtlHLNEI7afalpk+aAaVMp+PxRK6J8WKokwJ/TQPAo3xoKOwtTaAbtZD+ff
fp0R1/yJm8oIJIf52O9CGJtxYm55HxTL4vx9VqTM
-----END CERTIFICATE-----
