Certificate:
    Data:
        Version: 3 (0x2)
        Serial Number: 4098 (0x1002)
    Signature Algorithm: sha256WithRSAEncryption
        Issuer: C=FR, ST=IDF, L=Paris, O=Local NODE-OPCUA Certificate Authority, CN=NodeOPCUA-CA
        Validity
            Not Before: May 16 11:53:10 2017 GMT
            Not After : May 16 11:53:10 2018 GMT
        Subject: C=FR, O=NodeOPCUA, CN=NodeOPCUA
        Subject Public Key Info:
            Public Key Algorithm: rsaEncryption
                Public-Key: (2048 bit)
                Modulus:
                    00:c3:79:bb:a2:7d:95:87:29:ef:b6:2c:0a:77:d8:
                    0a:93:5e:b7:e2:c6:76:35:7c:d8:63:f6:cf:e9:e3:
                    1d:fb:55:25:1d:92:11:46:50:07:96:34:a9:45:85:
                    4f:03:b0:c0:e0:a8:a9:3c:b0:8a:db:6c:a1:18:5c:
                    dd:f5:4a:92:14:77:59:22:15:62:86:1a:ae:6a:f7:
                    5c:a9:2d:ab:04:8d:01:b6:12:8a:0e:d8:18:e0:9e:
                    0e:f7:76:b7:7d:50:5d:ad:c0:ef:34:0c:ce:a5:76:
                    d7:8d:24:23:96:85:ec:4e:37:23:0e:5e:96:9d:7a:
                    b9:d5:0d:ec:33:1d:8e:9b:3d:16:19:18:03:7a:57:
                    16:25:9c:e6:1f:33:69:ad:aa:6d:ed:4c:06:60:bf:
                    4a:b6:5a:3f:0e:ce:b4:65:79:77:11:cc:9e:2b:42:
                    e4:49:cc:50:bc:88:60:64:2e:fc:d4:3d:db:cf:2f:
                    3f:09:fe:81:5a:10:b0:e9:c3:c5:22:63:39:55:ef:
                    7d:21:86:1b:42:b5:07:e4:32:60:f1:df:86:c3:49:
                    fa:94:32:32:c1:24:4c:b8:50:56:66:a1:da:ac:66:
                    c6:c7:80:89:53:52:6b:c1:76:30:eb:bb:61:50:f5:
                    e6:c1:ce:2b:9b:5f:e3:e5:75:4b:e7:e5:f1:8a:e4:
                    b6:83
                Exponent: 65537 (0x10001)
        X509v3 extensions:
            X509v3 Basic Constraints: critical
                CA:FALSE
            X509v3 Subject Key Identifier: 
                B3:CF:64:A3:3E:FC:DC:25:D1:02:C1:C7:D3:F5:63:90:BC:BA:1C:39
            X509v3 Authority Key Identifier: 
                keyid:62:1D:0F:2B:99:F3:81:27:18:EB:32:A8:E7:56:3B:59:0F:A2:3C:EC
                DirName:/C=FR/ST=IDF/L=Paris/O=Local NODE-OPCUA Certificate Authority/CN=NodeOPCUA-CA
                serial:9B:E7:E8:F9:8D:80:14:28

            X509v3 Subject Alternative Name: 
                URI:urn:ASE044-LT.INTRA.TUT.FI:NodeOPCUA-Client, DNS:localhost, DNS:ASE044-LT.INTRA.TUT.FI
            Netscape Comment: 
                OpenSSL Generated Certificate
            X509v3 Key Usage: critical
                Digital Signature, Non Repudiation, Key Encipherment, Data Encipherment, Key Agreement, Certificate Sign
            X509v3 Extended Key Usage: critical
                TLS Web Server Authentication, TLS Web Client Authentication
    Signature Algorithm: sha256WithRSAEncryption
         5f:c5:19:aa:0c:63:2a:f1:06:47:5b:d7:c7:04:7f:d5:b0:e4:
         e3:6d:4e:29:f0:c4:7a:8f:cc:9a:16:25:14:61:39:bb:08:33:
         fd:61:92:ff:f8:2f:a2:a2:8b:60:f7:24:a4:4f:f6:d7:49:42:
         fe:93:0a:e3:2c:d4:3d:2b:8b:de:d6:72:bb:58:6d:dc:d9:09:
         71:20:ea:79:54:3a:6e:68:00:a5:c7:c7:6b:e7:53:56:dd:65:
         d9:d5:29:15:bd:80:76:f2:5f:c9:da:48:54:c5:93:52:47:e7:
         bd:aa:26:d7:3b:ae:79:86:9e:7f:b6:af:bb:31:3c:11:0a:13:
         ec:a2:4e:ef:b8:25:b3:81:71:6d:3f:5e:a1:01:a9:bd:ae:83:
         dd:54:7e:e7:14:b1:b3:a1:68:50:7c:94:c1:6a:45:3a:f7:02:
         4c:84:96:e4:aa:83:9e:da:42:3a:a9:6b:bf:7b:63:98:2d:07:
         da:1f:9e:86:ec:ec:86:a1:86:06:f2:18:4b:48:b2:8b:64:f7:
         60:22:89:d0:2d:2f:ec:51:90:ab:c9:5a:fc:2c:80:33:3f:c4:
         4f:5a:ba:52:bb:5c:39:ec:7a:01:ca:8d:62:43:fb:6e:84:cf:
         98:8f:bc:a2:80:67:0d:93:a5:19:62:ed:01:61:18:d3:42:45:
         b5:e0:08:39
-----BEGIN CERTIFICATE-----
MIIEvjCCA6agAwIBAgICEAIwDQYJKoZIhvcNAQELBQAwczELMAkGA1UEBhMCRlIx
DDAKBgNVBAgTA0lERjEOMAwGA1UEBxMFUGFyaXMxLzAtBgNVBAoTJkxvY2FsIE5P
REUtT1BDVUEgQ2VydGlmaWNhdGUgQXV0aG9yaXR5MRUwEwYDVQQDEwxOb2RlT1BD
VUEtQ0EwIhgPMjAxNzA1MTYxMTUzMTBaGA8yMDE4MDUxNjExNTMxMFowNTELMAkG
A1UEBhMCRlIxEjAQBgNVBAoMCU5vZGVPUENVQTESMBAGA1UEAwwJTm9kZU9QQ1VB
MIIBIjANBgkqhkiG9w0BAQEFAAOCAQ8AMIIBCgKCAQEAw3m7on2VhynvtiwKd9gK
k1634sZ2NXzYY/bP6eMd+1UlHZIRRlAHljSpRYVPA7DA4KipPLCK22yhGFzd9UqS
FHdZIhVihhquavdcqS2rBI0BthKKDtgY4J4O93a3fVBdrcDvNAzOpXbXjSQjloXs
TjcjDl6WnXq51Q3sMx2Omz0WGRgDelcWJZzmHzNprapt7UwGYL9Ktlo/Ds60ZXl3
EcyeK0LkScxQvIhgZC781D3bzy8/Cf6BWhCw6cPFImM5Ve99IYYbQrUH5DJg8d+G
w0n6lDIywSRMuFBWZqHarGbGx4CJU1JrwXYw67thUPXmwc4rm1/j5XVL5+XxiuS2
gwIDAQABo4IBlDCCAZAwDAYDVR0TAQH/BAIwADAdBgNVHQ4EFgQUs89koz783CXR
AsHH0/VjkLy6HDkwgaUGA1UdIwSBnTCBmoAUYh0PK5nzgScY6zKo51Y7WQ+iPOyh
d6R1MHMxCzAJBgNVBAYTAkZSMQwwCgYDVQQIEwNJREYxDjAMBgNVBAcTBVBhcmlz
MS8wLQYDVQQKEyZMb2NhbCBOT0RFLU9QQ1VBIENlcnRpZmljYXRlIEF1dGhvcml0
eTEVMBMGA1UEAxMMTm9kZU9QQ1VBLUNBggkAm+fo+Y2AFCgwWQYDVR0RBFIwUIYr
dXJuOkFTRTA0NC1MVC5JTlRSQS5UVVQuRkk6Tm9kZU9QQ1VBLUNsaWVudIIJbG9j
YWxob3N0ghZBU0UwNDQtTFQuSU5UUkEuVFVULkZJMCwGCWCGSAGG+EIBDQQfFh1P
cGVuU1NMIEdlbmVyYXRlZCBDZXJ0aWZpY2F0ZTAOBgNVHQ8BAf8EBAMCAvwwIAYD
VR0lAQH/BBYwFAYIKwYBBQUHAwEGCCsGAQUFBwMCMA0GCSqGSIb3DQEBCwUAA4IB
AQBfxRmqDGMq8QZHW9fHBH/VsOTjbU4p8MR6j8yaFiUUYTm7CDP9YZL/+C+iootg
9ySkT/bXSUL+kwrjLNQ9K4ve1nK7WG3c2QlxIOp5VDpuaAClx8dr51NW3WXZ1SkV
vYB28l/J2khUxZNSR+e9qibXO655hp5/tq+7MTwRChPsok7vuCWzgXFtP16hAam9
roPdVH7nFLGzoWhQfJTBakU69wJMhJbkqoOe2kI6qWu/e2OYLQfaH56G7OyGoYYG
8hhLSLKLZPdgIonQLS/sUZCryVr8LIAzP8RPWrpSu1w57HoByo1iQ/tuhM+Yj7yi
gGcNk6UZYu0BYRjTQkW14Ag5
-----END CERTIFICATE-----
-----BEGIN CERTIFICATE-----
MIIE3TCCA8WgAwIBAgIJAJvn6PmNgBQoMA0GCSqGSIb3DQEBCwUAMHMxCzAJBgNV
BAYTAkZSMQwwCgYDVQQIEwNJREYxDjAMBgNVBAcTBVBhcmlzMS8wLQYDVQQKEyZM
b2NhbCBOT0RFLU9QQ1VBIENlcnRpZmljYXRlIEF1dGhvcml0eTEVMBMGA1UEAxMM
Tm9kZU9QQ1VBLUNBMB4XDTE3MDUxNzExNTMxN1oXDTI3MDUxNTExNTMxN1owczEL
MAkGA1UEBhMCRlIxDDAKBgNVBAgTA0lERjEOMAwGA1UEBxMFUGFyaXMxLzAtBgNV
BAoTJkxvY2FsIE5PREUtT1BDVUEgQ2VydGlmaWNhdGUgQXV0aG9yaXR5MRUwEwYD
VQQDEwxOb2RlT1BDVUEtQ0EwggEiMA0GCSqGSIb3DQEBAQUAA4IBDwAwggEKAoIB
AQDsfDk2ti4lC1tIdPV5ENwU2KlF7I4KTrHr7r10IiUkcSV1dquT0+8AnYdgi9ZZ
F53PvHn2AJQRR91P2+xx3V+rqfH6KuUXs69mpyHyhgNBu8hfDb3YoBU1lr0MPLF1
d2S8mSts4syCnBWvqRwjLjT6XMOA6m0VbVWX8Oy8aCaYiEiUt9WWPeC5bQ9BUCk+
xteltJC9/fFh8i1wDEg9/T9EOPCUqpghIfz4NSbZ379pXCjqrXUHXK8v3gOWahX2
b3NJgML7Q4h4ck8CEEe9IilwP3zsFE4ADySUL7tDwB7FZ3L9BhDvMT2dKICgzO+e
lig5qXfVqqltsjJpvYNUDWQhAgMBAAGjggFyMIIBbjAdBgNVHQ4EFgQUYh0PK5nz
gScY6zKo51Y7WQ+iPOwwgaUGA1UdIwSBnTCBmoAUYh0PK5nzgScY6zKo51Y7WQ+i
POyhd6R1MHMxCzAJBgNVBAYTAkZSMQwwCgYDVQQIEwNJREYxDjAMBgNVBAcTBVBh
cmlzMS8wLQYDVQQKEyZMb2NhbCBOT0RFLU9QQ1VBIENlcnRpZmljYXRlIEF1dGhv
cml0eTEVMBMGA1UEAxMMTm9kZU9QQ1VBLUNBggkAm+fo+Y2AFCgwDAYDVR0TBAUw
AwEB/zAOBgNVHQ8BAf8EBAMCAQYwVwYJYIZIAYb4QgENBEoWSENBIENlcnRpZmlj
YXRlIGdlbmVyYXRlZCBieSBOb2RlLU9QQ1VBIENlcnRpZmljYXRlIHV0aWxpdHkg
dXNpbmcgb3BlbnNzbDAuBgNVHR8EJzAlMCOgIaAfhh1odHRwOi8vbG9jYWxob3N0
Ojg5MDAvY3JsLnBlbTANBgkqhkiG9w0BAQsFAAOCAQEAPxpk1LsVJXcQ9l8GvEMZ
vibyHFdKyBBraKW7k4RGpL65DMb8ej1x1rtVHlMUbSRh5Dwr6cp4VXowQe1jhCmd
nqG1DkYZZ4RXaUDRP/mk4Hx2lZxXjf3gh6jMaom+ijdX8QEUTFfkHaR1/77b/oW9
c8u4v70OMAbaKSoMhWbvK1eMRFrFGg2KIs19E+Xim29+63S6iONxVbnigDnupDDB
/7km8yc7U8RaPYUpeYhp4gppUwdL0RRUmJ27rSd3gE6Zax42OdsD0WD8dGIHAVLw
HgauE7HfNiWsfe+PVEKINbAlXZpr3WqfJd4mgVx6JUms0hiBk6JvqKfH7mhh5Gsp
bw==
-----END CERTIFICATE-----
