Certificate Request:
    Data:
        Version: 0 (0x0)
        Subject: C=FR, O=NodeOPCUA, CN=NodeOPCUA
        Subject Public Key Info:
            Public Key Algorithm: rsaEncryption
                Public-Key: (1024 bit)
                Modulus:
                    00:aa:b9:3c:2d:58:d9:6b:32:03:74:e3:56:3a:86:
                    7c:6b:4b:64:2d:de:c9:2b:c3:d7:b4:e1:87:68:c8:
                    52:33:c5:55:4e:8a:ef:8b:39:90:73:0d:55:6b:e9:
                    2a:99:42:55:9b:1f:4e:47:cc:60:47:aa:04:db:8b:
                    0e:c4:05:1a:02:e7:47:6a:bd:8a:0b:5e:dd:bc:fb:
                    01:2a:ab:40:f9:a5:19:43:28:89:66:15:aa:40:cc:
                    59:2d:67:5d:51:e1:11:89:af:2f:b2:9f:4f:70:d9:
                    7a:06:f9:56:d0:98:24:21:4d:23:65:ad:61:5f:7c:
                    3a:dd:d9:f2:1e:70:98:28:c9
                Exponent: 65537 (0x10001)
        Attributes:
        Requested Extensions:
            X509v3 Basic Constraints: 
                CA:FALSE
            X509v3 Key Usage: critical
                Certificate Sign, CRL Sign
            X509v3 Subject Alternative Name: 
                URI:undefined
    Signature Algorithm: sha256WithRSAEncryption
         9c:db:48:a9:22:9d:3f:b3:7d:41:1a:3f:99:da:4d:91:86:44:
         55:a4:ed:09:f1:ed:49:15:34:7f:33:8d:76:a3:ae:f8:be:ec:
         41:7e:72:bd:91:89:5a:4d:39:e5:8e:f3:3c:77:7d:32:31:cc:
         64:5a:e6:41:bc:23:e2:4e:fc:bb:aa:b6:4d:f8:b7:6c:6c:22:
         18:3d:4d:c8:33:9d:e1:f8:b6:b3:0d:72:ce:79:62:18:02:ef:
         b8:19:fc:e5:36:18:c5:24:1f:3f:a2:5d:cd:3c:80:d7:d1:28:
         17:ad:19:7f:91:94:ed:83:14:ca:c1:3d:45:b7:ca:59:73:15:
         c7:bf
-----BEGIN CERTIFICATE REQUEST-----
MIIBtzCCASACAQAwNTELMAkGA1UEBhMCRlIxEjAQBgNVBAoMCU5vZGVPUENVQTES
MBAGA1UEAwwJTm9kZU9QQ1VBMIGfMA0GCSqGSIb3DQEBAQUAA4GNADCBiQKBgQCq
uTwtWNlrMgN041Y6hnxrS2Qt3skrw9e04YdoyFIzxVVOiu+LOZBzDVVr6SqZQlWb
H05HzGBHqgTbiw7EBRoC50dqvYoLXt28+wEqq0D5pRlDKIlmFapAzFktZ11R4RGJ
ry+yn09w2XoG+VbQmCQhTSNlrWFffDrd2fIecJgoyQIDAQABoEIwQAYJKoZIhvcN
AQkOMTMwMTAJBgNVHRMEAjAAMA4GA1UdDwEB/wQEAwIBBjAUBgNVHREEDTALhgl1
bmRlZmluZWQwDQYJKoZIhvcNAQELBQADgYEAnNtIqSKdP7N9QRo/mdpNkYZEVaTt
CfHtSRU0fzONdqOu+L7sQX5yvZGJWk055Y7zPHd9MjHMZFrmQbwj4k78u6q2Tfi3
bGwiGD1NyDOd4fi2sw1yznliGALvuBn85TYYxSQfP6JdzTyA19EoF60Zf5GU7YMU
ysE9RbfKWXMVx78=
-----END CERTIFICATE REQUEST-----
