Certificate:
    Data:
        Version: 3 (0x2)
        Serial Number: 4105 (0x1009)
    Signature Algorithm: sha256WithRSAEncryption
        Issuer: O=NodeOPCUA, CN=NodeOPCUA
        Validity
            Not Before: May 16 11:53:10 2017 GMT
            Not After : May 16 11:53:10 2018 GMT
        Subject: O=NodeOPCUA, CN=NodeOPCUA
        Subject Public Key Info:
            Public Key Algorithm: rsaEncryption
                Public-Key: (1024 bit)
                Modulus:
                    00:c4:ef:aa:fa:36:6c:0f:11:37:21:5b:2a:20:d8:
                    5e:9a:60:44:2e:19:20:d4:7b:46:de:9a:2e:a9:c4:
                    07:c0:ee:5a:5e:d1:30:20:6d:f7:b2:57:31:e5:cb:
                    6f:c5:32:5d:fe:4d:25:8c:ea:e6:13:a0:1a:fa:b9:
                    b8:b1:fa:55:d7:ee:7f:8c:40:b7:41:1e:87:a8:b6:
                    d5:58:c3:a8:c3:16:e8:1f:0c:b9:a1:fe:0c:da:20:
                    23:f0:a4:a8:f7:fa:74:23:0e:78:2f:8f:29:99:b9:
                    e6:8d:18:00:86:54:8a:31:7f:4c:a1:55:8a:68:41:
                    75:7a:ff:26:6a:91:11:b0:51
                Exponent: 65537 (0x10001)
        X509v3 extensions:
            X509v3 Basic Constraints: critical
                CA:FALSE
            X509v3 Subject Key Identifier: 
                5C:82:72:FA:0C:27:F1:26:6F:39:31:DC:5A:E3:F2:D2:CE:93:03:4D
            X509v3 Authority Key Identifier: 
                keyid:5C:82:72:FA:0C:27:F1:26:6F:39:31:DC:5A:E3:F2:D2:CE:93:03:4D
                DirName:/O=NodeOPCUA/CN=NodeOPCUA
                serial:10:09

            X509v3 Subject Alternative Name: 
                URI:urn:ASE044-LT.INTRA.TUT.FI:NodeOPCUA-DiscoveryServer, DNS:localhost, DNS:ASE044-LT.INTRA.TUT.FI
            Netscape Comment: 
                OpenSSL Generated Certificate
            X509v3 Key Usage: critical
                Digital Signature, Non Repudiation, Key Encipherment, Data Encipherment, Key Agreement, Certificate Sign
            X509v3 Extended Key Usage: critical
                TLS Web Server Authentication, TLS Web Client Authentication
    Signature Algorithm: sha256WithRSAEncryption
         24:49:80:8e:a1:f8:12:9f:15:99:54:17:8e:7e:1e:06:8c:1d:
         49:fc:08:21:dc:8f:77:a0:15:fd:2d:e1:4d:78:5c:c5:4a:bd:
         76:ec:8e:8e:b8:4d:56:82:4b:7a:5a:23:f2:25:83:22:be:e0:
         86:54:a6:9c:f4:79:1b:b8:90:15:b7:d2:89:12:ac:cc:bf:4f:
         86:3b:8c:a8:4e:0e:dd:76:cd:13:ce:8d:e6:06:11:a7:c5:d3:
         14:fe:48:dc:61:53:2d:99:cb:0f:39:58:cf:72:24:b3:78:e2:
         0b:63:d4:b2:1a:48:3a:c0:4f:ac:27:f8:6e:a1:8c:7c:b0:85:
         02:cb
-----BEGIN CERTIFICATE-----
MIIDFTCCAn6gAwIBAgICEAkwDQYJKoZIhvcNAQELBQAwKDESMBAGA1UEChMJTm9k
ZU9QQ1VBMRIwEAYDVQQDEwlOb2RlT1BDVUEwIhgPMjAxNzA1MTYxMTUzMTBaGA8y
MDE4MDUxNjExNTMxMFowKDESMBAGA1UEChMJTm9kZU9QQ1VBMRIwEAYDVQQDEwlO
b2RlT1BDVUEwgZ8wDQYJKoZIhvcNAQEBBQADgY0AMIGJAoGBAMTvqvo2bA8RNyFb
KiDYXppgRC4ZINR7Rt6aLqnEB8DuWl7RMCBt97JXMeXLb8UyXf5NJYzq5hOgGvq5
uLH6Vdfuf4xAt0Eeh6i21VjDqMMW6B8MuaH+DNogI/CkqPf6dCMOeC+PKZm55o0Y
AIZUijF/TKFVimhBdXr/JmqREbBRAgMBAAGjggFIMIIBRDAMBgNVHRMBAf8EAjAA
MB0GA1UdDgQWBBRcgnL6DCfxJm85Mdxa4/LSzpMDTTBRBgNVHSMESjBIgBRcgnL6
DCfxJm85Mdxa4/LSzpMDTaEspCowKDESMBAGA1UEChMJTm9kZU9QQ1VBMRIwEAYD
VQQDEwlOb2RlT1BDVUGCAhAJMGIGA1UdEQRbMFmGNHVybjpBU0UwNDQtTFQuSU5U
UkEuVFVULkZJOk5vZGVPUENVQS1EaXNjb3ZlcnlTZXJ2ZXKCCWxvY2FsaG9zdIIW
QVNFMDQ0LUxULklOVFJBLlRVVC5GSTAsBglghkgBhvhCAQ0EHxYdT3BlblNTTCBH
ZW5lcmF0ZWQgQ2VydGlmaWNhdGUwDgYDVR0PAQH/BAQDAgL8MCAGA1UdJQEB/wQW
MBQGCCsGAQUFBwMBBggrBgEFBQcDAjANBgkqhkiG9w0BAQsFAAOBgQAkSYCOofgS
nxWZVBeOfh4GjB1J/Agh3I93oBX9LeFNeFzFSr127I6OuE1Wgkt6WiPyJYMivuCG
VKac9HkbuJAVt9KJEqzMv0+GO4yoTg7dds0Tzo3mBhGnxdMU/kjcYVMtmcsPOVjP
ciSzeOILY9SyGkg6wE+sJ/huoYx8sIUCyw==
-----END CERTIFICATE-----
