Certificate:
    Data:
        Version: 3 (0x2)
        Serial Number: 4101 (0x1005)
    Signature Algorithm: sha256WithRSAEncryption
        Issuer: O=NodeOPCUA, CN=NodeOPCUA
        Validity
            Not Before: May 16 11:53:10 2017 GMT
            Not After : May 16 11:53:10 2018 GMT
        Subject: O=NodeOPCUA, CN=NodeOPCUA
        Subject Public Key Info:
            Public Key Algorithm: rsaEncryption
                Public-Key: (1024 bit)
                Modulus:
                    00:c9:1d:94:c0:77:d7:87:3e:9d:b6:05:65:f7:40:
                    26:e4:d0:80:56:f0:79:44:e4:aa:70:02:e8:41:cf:
                    f5:2e:ab:44:6b:3c:43:09:0b:14:d5:ac:cc:5c:09:
                    28:ab:65:f7:b4:a4:d4:74:c0:ec:c5:3e:0c:1f:71:
                    57:23:21:fb:2b:0c:f7:a6:e2:bf:a5:8d:c7:d9:8a:
                    91:56:5c:b4:a1:66:9b:af:99:70:05:50:6f:32:89:
                    49:c7:7c:57:bf:37:ec:95:9e:28:37:da:8c:78:72:
                    f3:22:36:12:b1:58:d3:a9:2f:d9:c7:07:56:54:bb:
                    f8:32:5a:7c:41:55:a0:70:eb
                Exponent: 65537 (0x10001)
        X509v3 extensions:
            X509v3 Basic Constraints: critical
                CA:FALSE
            X509v3 Subject Key Identifier: 
                A7:F1:6C:05:34:9C:D4:5D:74:18:F9:44:DA:91:69:D1:4F:41:50:5A
            X509v3 Authority Key Identifier: 
                keyid:A7:F1:6C:05:34:9C:D4:5D:74:18:F9:44:DA:91:69:D1:4F:41:50:5A
                DirName:/O=NodeOPCUA/CN=NodeOPCUA
                serial:10:05

            X509v3 Subject Alternative Name: 
                URI:urn:ASE044-LT.INTRA.TUT.FI:NodeOPCUA-Server, DNS:localhost, DNS:ASE044-LT.INTRA.TUT.FI
            Netscape Comment: 
                OpenSSL Generated Certificate
            X509v3 Key Usage: critical
                Digital Signature, Non Repudiation, Key Encipherment, Data Encipherment, Key Agreement, Certificate Sign
            X509v3 Extended Key Usage: critical
                TLS Web Server Authentication, TLS Web Client Authentication
    Signature Algorithm: sha256WithRSAEncryption
         b1:d5:2f:70:d5:39:0a:45:87:d8:76:65:fe:be:28:6f:f2:dd:
         c2:77:12:ea:10:bf:b9:f1:df:12:41:72:90:6a:c5:36:15:32:
         e6:1c:8b:ed:0c:0b:1a:90:b5:fb:98:5e:f4:05:7d:04:60:0a:
         f5:36:2a:13:1e:14:89:00:ee:05:5d:cd:59:c5:fc:12:47:5b:
         9e:dc:71:6d:3f:c9:c4:69:49:7d:a0:bd:4a:ec:e8:6c:58:a3:
         3f:c4:3b:f6:7f:64:47:5a:d4:e0:0c:dd:5d:02:6a:dd:0a:74:
         06:ad:18:45:6b:52:0f:ce:d1:ab:fe:cc:84:3a:bf:13:8c:25:
         b7:c4
-----BEGIN CERTIFICATE-----
MIIDDDCCAnWgAwIBAgICEAUwDQYJKoZIhvcNAQELBQAwKDESMBAGA1UEChMJTm9k
ZU9QQ1VBMRIwEAYDVQQDEwlOb2RlT1BDVUEwIhgPMjAxNzA1MTYxMTUzMTBaGA8y
MDE4MDUxNjExNTMxMFowKDESMBAGA1UEChMJTm9kZU9QQ1VBMRIwEAYDVQQDEwlO
b2RlT1BDVUEwgZ8wDQYJKoZIhvcNAQEBBQADgY0AMIGJAoGBAMkdlMB314c+nbYF
ZfdAJuTQgFbweUTkqnAC6EHP9S6rRGs8QwkLFNWszFwJKKtl97Sk1HTA7MU+DB9x
VyMh+ysM96biv6WNx9mKkVZctKFmm6+ZcAVQbzKJScd8V7837JWeKDfajHhy8yI2
ErFY06kv2ccHVlS7+DJafEFVoHDrAgMBAAGjggE/MIIBOzAMBgNVHRMBAf8EAjAA
MB0GA1UdDgQWBBSn8WwFNJzUXXQY+UTakWnRT0FQWjBRBgNVHSMESjBIgBSn8WwF
NJzUXXQY+UTakWnRT0FQWqEspCowKDESMBAGA1UEChMJTm9kZU9QQ1VBMRIwEAYD
VQQDEwlOb2RlT1BDVUGCAhAFMFkGA1UdEQRSMFCGK3VybjpBU0UwNDQtTFQuSU5U
UkEuVFVULkZJOk5vZGVPUENVQS1TZXJ2ZXKCCWxvY2FsaG9zdIIWQVNFMDQ0LUxU
LklOVFJBLlRVVC5GSTAsBglghkgBhvhCAQ0EHxYdT3BlblNTTCBHZW5lcmF0ZWQg
Q2VydGlmaWNhdGUwDgYDVR0PAQH/BAQDAgL8MCAGA1UdJQEB/wQWMBQGCCsGAQUF
BwMBBggrBgEFBQcDAjANBgkqhkiG9w0BAQsFAAOBgQCx1S9w1TkKRYfYdmX+vihv
8t3CdxLqEL+58d8SQXKQasU2FTLmHIvtDAsakLX7mF70BX0EYAr1NioTHhSJAO4F
Xc1ZxfwSR1ue3HFtP8nEaUl9oL1K7OhsWKM/xDv2f2RHWtTgDN1dAmrdCnQGrRhF
a1IPztGr/syEOr8TjCW3xA==
-----END CERTIFICATE-----
